
build/kernel-x86_64.bin:     file format elf64-x86-64


Disassembly of section .text:

0000000000102000 <_os_assert>:
  102000:	fa                   	cli    
  102001:	c7 04 25 00 80 0b 00 	movl   $0x2f692f4c,0xb8000
  102008:	4c 2f 69 2f 
  10200c:	c7 04 25 04 80 0b 00 	movl   $0x2f652f6e,0xb8004
  102013:	6e 2f 65 2f 
  102017:	c7 04 25 08 80 0b 00 	movl   $0x2f002f00,0xb8008
  10201e:	00 2f 00 2f 
  102022:	c7 04 25 a0 80 0b 00 	movl   $0x2f692f46,0xb80a0
  102029:	46 2f 69 2f 
  10202d:	c7 04 25 a4 80 0b 00 	movl   $0x2f652f6c,0xb80a4
  102034:	6c 2f 65 2f 
  102038:	c7 04 25 a8 80 0b 00 	movl   $0x2f002f00,0xb80a8
  10203f:	00 2f 00 2f 
  102043:	c7 04 25 40 81 0b 00 	movl   $0x2f612f46,0xb8140
  10204a:	46 2f 61 2f 
  10204e:	c7 04 25 44 81 0b 00 	movl   $0x2f6c2f69,0xb8144
  102055:	69 2f 6c 2f 
  102059:	c7 04 25 48 81 0b 00 	movl   $0x2f002f00,0xb8148
  102060:	00 2f 00 2f 
  102064:	41 b8 0c 80 0b 00    	mov    $0xb800c,%r8d
  10206a:	41 b9 ac 80 0b 00    	mov    $0xb80ac,%r9d
  102070:	41 ba 4c 81 0b 00    	mov    $0xb814c,%r10d

0000000000102076 <_os_assert.print_ex_>:
  102076:	80 3a 00             	cmpb   $0x0,(%rdx)
  102079:	74 13                	je     10208e <_os_assert.print_file_>
  10207b:	66 bb 00 2f          	mov    $0x2f00,%bx
  10207f:	0a 1a                	or     (%rdx),%bl
  102081:	66 41 89 18          	mov    %bx,(%r8)
  102085:	49 83 c0 02          	add    $0x2,%r8
  102089:	48 ff c2             	inc    %rdx
  10208c:	eb e8                	jmp    102076 <_os_assert.print_ex_>

000000000010208e <_os_assert.print_file_>:
  10208e:	80 3e 00             	cmpb   $0x0,(%rsi)
  102091:	74 13                	je     1020a6 <_os_assert.print_line_>
  102093:	66 bb 00 2f          	mov    $0x2f00,%bx
  102097:	0a 1e                	or     (%rsi),%bl
  102099:	66 41 89 19          	mov    %bx,(%r9)
  10209d:	49 83 c1 02          	add    $0x2,%r9
  1020a1:	48 ff c6             	inc    %rsi
  1020a4:	eb e8                	jmp    10208e <_os_assert.print_file_>

00000000001020a6 <_os_assert.print_line_>:
  1020a6:	80 3f 00             	cmpb   $0x0,(%rdi)
  1020a9:	74 13                	je     1020be <_os_assert.end_of_assert>
  1020ab:	66 bb 00 2f          	mov    $0x2f00,%bx
  1020af:	0a 1f                	or     (%rdi),%bl
  1020b1:	66 41 89 1a          	mov    %bx,(%r10)
  1020b5:	49 83 c2 02          	add    $0x2,%r10
  1020b9:	48 ff c7             	inc    %rdi
  1020bc:	eb e8                	jmp    1020a6 <_os_assert.print_line_>

00000000001020be <_os_assert.end_of_assert>:
  1020be:	f4                   	hlt    

00000000001020bf <long_mode_start>:
  1020bf:	e8 2c 00 00 00       	callq  1020f0 <ok>
  1020c4:	e8 97 36 00 00       	callq  105760 <setup_interrupt_handlers>
  1020c9:	e8 7e 3d 00 00       	callq  105e4c <kernel_main>
  1020ce:	c7 04 25 00 80 0b 00 	movl   $0x4f204f20,0xb8000
  1020d5:	20 4f 20 4f 
  1020d9:	c7 04 25 04 80 0b 00 	movl   $0x4f3a4f52,0xb8004
  1020e0:	52 4f 3a 4f 
  1020e4:	c7 04 25 08 80 0b 00 	movl   $0x2f524f45,0xb8008
  1020eb:	45 4f 52 2f 
  1020ef:	f4                   	hlt    

00000000001020f0 <ok>:
  1020f0:	c7 04 25 00 80 0b 00 	movl   $0x2f4b2f4f,0xb8000
  1020f7:	4f 2f 4b 2f 
  1020fb:	c3                   	retq   

00000000001020fc <error>:
  1020fc:	c7 04 25 00 80 0b 00 	movl   $0x2f524f45,0xb8000
  102103:	45 4f 52 2f 
  102107:	c7 04 25 04 80 0b 00 	movl   $0x4f3a4f52,0xb8004
  10210e:	52 4f 3a 4f 
  102112:	c7 04 25 08 80 0b 00 	movl   $0x4f204f20,0xb8008
  102119:	20 4f 20 4f 
  10211d:	88 04 25 0c 80 0b 00 	mov    %al,0xb800c
  102124:	f4                   	hlt    

0000000000102125 <done>:
  102125:	48 81 ec 82 00 00 00 	sub    $0x82,%rsp
  10212c:	50                   	push   %rax
  10212d:	51                   	push   %rcx
  10212e:	52                   	push   %rdx
  10212f:	56                   	push   %rsi
  102130:	57                   	push   %rdi
  102131:	41 50                	push   %r8
  102133:	41 51                	push   %r9
  102135:	41 52                	push   %r10
  102137:	41 53                	push   %r11
  102139:	fc                   	cld    
  10213a:	ff 14 25 00 a0 10 00 	callq  *0x10a000
  102141:	b0 20                	mov    $0x20,%al
  102143:	e6 20                	out    %al,$0x20
  102145:	41 5b                	pop    %r11
  102147:	41 5a                	pop    %r10
  102149:	41 59                	pop    %r9
  10214b:	41 58                	pop    %r8
  10214d:	5f                   	pop    %rdi
  10214e:	5e                   	pop    %rsi
  10214f:	5a                   	pop    %rdx
  102150:	59                   	pop    %rcx
  102151:	58                   	pop    %rax
  102152:	48 81 c4 82 00 00 00 	add    $0x82,%rsp
  102159:	48 cf                	iretq  

000000000010215b <interrupt_shim_1>:
  10215b:	48 81 ec 82 00 00 00 	sub    $0x82,%rsp
  102162:	50                   	push   %rax
  102163:	51                   	push   %rcx
  102164:	52                   	push   %rdx
  102165:	56                   	push   %rsi
  102166:	57                   	push   %rdi
  102167:	41 50                	push   %r8
  102169:	41 51                	push   %r9
  10216b:	41 52                	push   %r10
  10216d:	41 53                	push   %r11
  10216f:	fc                   	cld    
  102170:	ff 14 25 08 a0 10 00 	callq  *0x10a008
  102177:	b0 20                	mov    $0x20,%al
  102179:	e6 20                	out    %al,$0x20
  10217b:	41 5b                	pop    %r11
  10217d:	41 5a                	pop    %r10
  10217f:	41 59                	pop    %r9
  102181:	41 58                	pop    %r8
  102183:	5f                   	pop    %rdi
  102184:	5e                   	pop    %rsi
  102185:	5a                   	pop    %rdx
  102186:	59                   	pop    %rcx
  102187:	58                   	pop    %rax
  102188:	48 81 c4 82 00 00 00 	add    $0x82,%rsp
  10218f:	48 cf                	iretq  

0000000000102191 <interrupt_shim_2>:
  102191:	48 81 ec 82 00 00 00 	sub    $0x82,%rsp
  102198:	50                   	push   %rax
  102199:	51                   	push   %rcx
  10219a:	52                   	push   %rdx
  10219b:	56                   	push   %rsi
  10219c:	57                   	push   %rdi
  10219d:	41 50                	push   %r8
  10219f:	41 51                	push   %r9
  1021a1:	41 52                	push   %r10
  1021a3:	41 53                	push   %r11
  1021a5:	fc                   	cld    
  1021a6:	ff 14 25 10 a0 10 00 	callq  *0x10a010
  1021ad:	b0 20                	mov    $0x20,%al
  1021af:	e6 20                	out    %al,$0x20
  1021b1:	41 5b                	pop    %r11
  1021b3:	41 5a                	pop    %r10
  1021b5:	41 59                	pop    %r9
  1021b7:	41 58                	pop    %r8
  1021b9:	5f                   	pop    %rdi
  1021ba:	5e                   	pop    %rsi
  1021bb:	5a                   	pop    %rdx
  1021bc:	59                   	pop    %rcx
  1021bd:	58                   	pop    %rax
  1021be:	48 81 c4 82 00 00 00 	add    $0x82,%rsp
  1021c5:	48 cf                	iretq  

00000000001021c7 <interrupt_shim_3>:
  1021c7:	48 81 ec 82 00 00 00 	sub    $0x82,%rsp
  1021ce:	50                   	push   %rax
  1021cf:	51                   	push   %rcx
  1021d0:	52                   	push   %rdx
  1021d1:	56                   	push   %rsi
  1021d2:	57                   	push   %rdi
  1021d3:	41 50                	push   %r8
  1021d5:	41 51                	push   %r9
  1021d7:	41 52                	push   %r10
  1021d9:	41 53                	push   %r11
  1021db:	fc                   	cld    
  1021dc:	ff 14 25 18 a0 10 00 	callq  *0x10a018
  1021e3:	b0 20                	mov    $0x20,%al
  1021e5:	e6 20                	out    %al,$0x20
  1021e7:	41 5b                	pop    %r11
  1021e9:	41 5a                	pop    %r10
  1021eb:	41 59                	pop    %r9
  1021ed:	41 58                	pop    %r8
  1021ef:	5f                   	pop    %rdi
  1021f0:	5e                   	pop    %rsi
  1021f1:	5a                   	pop    %rdx
  1021f2:	59                   	pop    %rcx
  1021f3:	58                   	pop    %rax
  1021f4:	48 81 c4 82 00 00 00 	add    $0x82,%rsp
  1021fb:	48 cf                	iretq  

00000000001021fd <interrupt_shim_4>:
  1021fd:	48 81 ec 82 00 00 00 	sub    $0x82,%rsp
  102204:	50                   	push   %rax
  102205:	51                   	push   %rcx
  102206:	52                   	push   %rdx
  102207:	56                   	push   %rsi
  102208:	57                   	push   %rdi
  102209:	41 50                	push   %r8
  10220b:	41 51                	push   %r9
  10220d:	41 52                	push   %r10
  10220f:	41 53                	push   %r11
  102211:	fc                   	cld    
  102212:	ff 14 25 20 a0 10 00 	callq  *0x10a020
  102219:	b0 20                	mov    $0x20,%al
  10221b:	e6 20                	out    %al,$0x20
  10221d:	41 5b                	pop    %r11
  10221f:	41 5a                	pop    %r10
  102221:	41 59                	pop    %r9
  102223:	41 58                	pop    %r8
  102225:	5f                   	pop    %rdi
  102226:	5e                   	pop    %rsi
  102227:	5a                   	pop    %rdx
  102228:	59                   	pop    %rcx
  102229:	58                   	pop    %rax
  10222a:	48 81 c4 82 00 00 00 	add    $0x82,%rsp
  102231:	48 cf                	iretq  

0000000000102233 <interrupt_shim_5>:
  102233:	48 81 ec 82 00 00 00 	sub    $0x82,%rsp
  10223a:	50                   	push   %rax
  10223b:	51                   	push   %rcx
  10223c:	52                   	push   %rdx
  10223d:	56                   	push   %rsi
  10223e:	57                   	push   %rdi
  10223f:	41 50                	push   %r8
  102241:	41 51                	push   %r9
  102243:	41 52                	push   %r10
  102245:	41 53                	push   %r11
  102247:	fc                   	cld    
  102248:	ff 14 25 28 a0 10 00 	callq  *0x10a028
  10224f:	b0 20                	mov    $0x20,%al
  102251:	e6 20                	out    %al,$0x20
  102253:	41 5b                	pop    %r11
  102255:	41 5a                	pop    %r10
  102257:	41 59                	pop    %r9
  102259:	41 58                	pop    %r8
  10225b:	5f                   	pop    %rdi
  10225c:	5e                   	pop    %rsi
  10225d:	5a                   	pop    %rdx
  10225e:	59                   	pop    %rcx
  10225f:	58                   	pop    %rax
  102260:	48 81 c4 82 00 00 00 	add    $0x82,%rsp
  102267:	48 cf                	iretq  

0000000000102269 <interrupt_shim_6>:
  102269:	48 81 ec 82 00 00 00 	sub    $0x82,%rsp
  102270:	50                   	push   %rax
  102271:	51                   	push   %rcx
  102272:	52                   	push   %rdx
  102273:	56                   	push   %rsi
  102274:	57                   	push   %rdi
  102275:	41 50                	push   %r8
  102277:	41 51                	push   %r9
  102279:	41 52                	push   %r10
  10227b:	41 53                	push   %r11
  10227d:	fc                   	cld    
  10227e:	ff 14 25 30 a0 10 00 	callq  *0x10a030
  102285:	b0 20                	mov    $0x20,%al
  102287:	e6 20                	out    %al,$0x20
  102289:	41 5b                	pop    %r11
  10228b:	41 5a                	pop    %r10
  10228d:	41 59                	pop    %r9
  10228f:	41 58                	pop    %r8
  102291:	5f                   	pop    %rdi
  102292:	5e                   	pop    %rsi
  102293:	5a                   	pop    %rdx
  102294:	59                   	pop    %rcx
  102295:	58                   	pop    %rax
  102296:	48 81 c4 82 00 00 00 	add    $0x82,%rsp
  10229d:	48 cf                	iretq  

000000000010229f <interrupt_shim_7>:
  10229f:	48 81 ec 82 00 00 00 	sub    $0x82,%rsp
  1022a6:	50                   	push   %rax
  1022a7:	51                   	push   %rcx
  1022a8:	52                   	push   %rdx
  1022a9:	56                   	push   %rsi
  1022aa:	57                   	push   %rdi
  1022ab:	41 50                	push   %r8
  1022ad:	41 51                	push   %r9
  1022af:	41 52                	push   %r10
  1022b1:	41 53                	push   %r11
  1022b3:	fc                   	cld    
  1022b4:	ff 14 25 38 a0 10 00 	callq  *0x10a038
  1022bb:	b0 20                	mov    $0x20,%al
  1022bd:	e6 20                	out    %al,$0x20
  1022bf:	41 5b                	pop    %r11
  1022c1:	41 5a                	pop    %r10
  1022c3:	41 59                	pop    %r9
  1022c5:	41 58                	pop    %r8
  1022c7:	5f                   	pop    %rdi
  1022c8:	5e                   	pop    %rsi
  1022c9:	5a                   	pop    %rdx
  1022ca:	59                   	pop    %rcx
  1022cb:	58                   	pop    %rax
  1022cc:	48 81 c4 82 00 00 00 	add    $0x82,%rsp
  1022d3:	48 cf                	iretq  

00000000001022d5 <interrupt_shim_8>:
  1022d5:	48 81 ec 82 00 00 00 	sub    $0x82,%rsp
  1022dc:	50                   	push   %rax
  1022dd:	51                   	push   %rcx
  1022de:	52                   	push   %rdx
  1022df:	56                   	push   %rsi
  1022e0:	57                   	push   %rdi
  1022e1:	41 50                	push   %r8
  1022e3:	41 51                	push   %r9
  1022e5:	41 52                	push   %r10
  1022e7:	41 53                	push   %r11
  1022e9:	fc                   	cld    
  1022ea:	ff 14 25 40 a0 10 00 	callq  *0x10a040
  1022f1:	b0 20                	mov    $0x20,%al
  1022f3:	e6 20                	out    %al,$0x20
  1022f5:	41 5b                	pop    %r11
  1022f7:	41 5a                	pop    %r10
  1022f9:	41 59                	pop    %r9
  1022fb:	41 58                	pop    %r8
  1022fd:	5f                   	pop    %rdi
  1022fe:	5e                   	pop    %rsi
  1022ff:	5a                   	pop    %rdx
  102300:	59                   	pop    %rcx
  102301:	58                   	pop    %rax
  102302:	48 81 c4 82 00 00 00 	add    $0x82,%rsp
  102309:	48 cf                	iretq  

000000000010230b <interrupt_shim_9>:
  10230b:	48 81 ec 82 00 00 00 	sub    $0x82,%rsp
  102312:	50                   	push   %rax
  102313:	51                   	push   %rcx
  102314:	52                   	push   %rdx
  102315:	56                   	push   %rsi
  102316:	57                   	push   %rdi
  102317:	41 50                	push   %r8
  102319:	41 51                	push   %r9
  10231b:	41 52                	push   %r10
  10231d:	41 53                	push   %r11
  10231f:	fc                   	cld    
  102320:	ff 14 25 48 a0 10 00 	callq  *0x10a048
  102327:	b0 20                	mov    $0x20,%al
  102329:	e6 20                	out    %al,$0x20
  10232b:	41 5b                	pop    %r11
  10232d:	41 5a                	pop    %r10
  10232f:	41 59                	pop    %r9
  102331:	41 58                	pop    %r8
  102333:	5f                   	pop    %rdi
  102334:	5e                   	pop    %rsi
  102335:	5a                   	pop    %rdx
  102336:	59                   	pop    %rcx
  102337:	58                   	pop    %rax
  102338:	48 81 c4 82 00 00 00 	add    $0x82,%rsp
  10233f:	48 cf                	iretq  

0000000000102341 <interrupt_shim_10>:
  102341:	48 81 ec 82 00 00 00 	sub    $0x82,%rsp
  102348:	50                   	push   %rax
  102349:	51                   	push   %rcx
  10234a:	52                   	push   %rdx
  10234b:	56                   	push   %rsi
  10234c:	57                   	push   %rdi
  10234d:	41 50                	push   %r8
  10234f:	41 51                	push   %r9
  102351:	41 52                	push   %r10
  102353:	41 53                	push   %r11
  102355:	fc                   	cld    
  102356:	ff 14 25 50 a0 10 00 	callq  *0x10a050
  10235d:	b0 20                	mov    $0x20,%al
  10235f:	e6 20                	out    %al,$0x20
  102361:	41 5b                	pop    %r11
  102363:	41 5a                	pop    %r10
  102365:	41 59                	pop    %r9
  102367:	41 58                	pop    %r8
  102369:	5f                   	pop    %rdi
  10236a:	5e                   	pop    %rsi
  10236b:	5a                   	pop    %rdx
  10236c:	59                   	pop    %rcx
  10236d:	58                   	pop    %rax
  10236e:	48 81 c4 82 00 00 00 	add    $0x82,%rsp
  102375:	48 cf                	iretq  

0000000000102377 <interrupt_shim_11>:
  102377:	48 81 ec 82 00 00 00 	sub    $0x82,%rsp
  10237e:	50                   	push   %rax
  10237f:	51                   	push   %rcx
  102380:	52                   	push   %rdx
  102381:	56                   	push   %rsi
  102382:	57                   	push   %rdi
  102383:	41 50                	push   %r8
  102385:	41 51                	push   %r9
  102387:	41 52                	push   %r10
  102389:	41 53                	push   %r11
  10238b:	fc                   	cld    
  10238c:	ff 14 25 58 a0 10 00 	callq  *0x10a058
  102393:	b0 20                	mov    $0x20,%al
  102395:	e6 20                	out    %al,$0x20
  102397:	41 5b                	pop    %r11
  102399:	41 5a                	pop    %r10
  10239b:	41 59                	pop    %r9
  10239d:	41 58                	pop    %r8
  10239f:	5f                   	pop    %rdi
  1023a0:	5e                   	pop    %rsi
  1023a1:	5a                   	pop    %rdx
  1023a2:	59                   	pop    %rcx
  1023a3:	58                   	pop    %rax
  1023a4:	48 81 c4 82 00 00 00 	add    $0x82,%rsp
  1023ab:	48 cf                	iretq  

00000000001023ad <interrupt_shim_12>:
  1023ad:	48 81 ec 82 00 00 00 	sub    $0x82,%rsp
  1023b4:	50                   	push   %rax
  1023b5:	51                   	push   %rcx
  1023b6:	52                   	push   %rdx
  1023b7:	56                   	push   %rsi
  1023b8:	57                   	push   %rdi
  1023b9:	41 50                	push   %r8
  1023bb:	41 51                	push   %r9
  1023bd:	41 52                	push   %r10
  1023bf:	41 53                	push   %r11
  1023c1:	fc                   	cld    
  1023c2:	ff 14 25 60 a0 10 00 	callq  *0x10a060
  1023c9:	b0 20                	mov    $0x20,%al
  1023cb:	e6 20                	out    %al,$0x20
  1023cd:	41 5b                	pop    %r11
  1023cf:	41 5a                	pop    %r10
  1023d1:	41 59                	pop    %r9
  1023d3:	41 58                	pop    %r8
  1023d5:	5f                   	pop    %rdi
  1023d6:	5e                   	pop    %rsi
  1023d7:	5a                   	pop    %rdx
  1023d8:	59                   	pop    %rcx
  1023d9:	58                   	pop    %rax
  1023da:	48 81 c4 82 00 00 00 	add    $0x82,%rsp
  1023e1:	48 cf                	iretq  

00000000001023e3 <interrupt_shim_13>:
  1023e3:	48 81 ec 82 00 00 00 	sub    $0x82,%rsp
  1023ea:	50                   	push   %rax
  1023eb:	51                   	push   %rcx
  1023ec:	52                   	push   %rdx
  1023ed:	56                   	push   %rsi
  1023ee:	57                   	push   %rdi
  1023ef:	41 50                	push   %r8
  1023f1:	41 51                	push   %r9
  1023f3:	41 52                	push   %r10
  1023f5:	41 53                	push   %r11
  1023f7:	fc                   	cld    
  1023f8:	ff 14 25 68 a0 10 00 	callq  *0x10a068
  1023ff:	b0 20                	mov    $0x20,%al
  102401:	e6 20                	out    %al,$0x20
  102403:	41 5b                	pop    %r11
  102405:	41 5a                	pop    %r10
  102407:	41 59                	pop    %r9
  102409:	41 58                	pop    %r8
  10240b:	5f                   	pop    %rdi
  10240c:	5e                   	pop    %rsi
  10240d:	5a                   	pop    %rdx
  10240e:	59                   	pop    %rcx
  10240f:	58                   	pop    %rax
  102410:	48 81 c4 82 00 00 00 	add    $0x82,%rsp
  102417:	48 cf                	iretq  

0000000000102419 <interrupt_shim_14>:
  102419:	48 81 ec 82 00 00 00 	sub    $0x82,%rsp
  102420:	50                   	push   %rax
  102421:	51                   	push   %rcx
  102422:	52                   	push   %rdx
  102423:	56                   	push   %rsi
  102424:	57                   	push   %rdi
  102425:	41 50                	push   %r8
  102427:	41 51                	push   %r9
  102429:	41 52                	push   %r10
  10242b:	41 53                	push   %r11
  10242d:	fc                   	cld    
  10242e:	ff 14 25 70 a0 10 00 	callq  *0x10a070
  102435:	b0 20                	mov    $0x20,%al
  102437:	e6 20                	out    %al,$0x20
  102439:	41 5b                	pop    %r11
  10243b:	41 5a                	pop    %r10
  10243d:	41 59                	pop    %r9
  10243f:	41 58                	pop    %r8
  102441:	5f                   	pop    %rdi
  102442:	5e                   	pop    %rsi
  102443:	5a                   	pop    %rdx
  102444:	59                   	pop    %rcx
  102445:	58                   	pop    %rax
  102446:	48 81 c4 82 00 00 00 	add    $0x82,%rsp
  10244d:	48 cf                	iretq  

000000000010244f <interrupt_shim_15>:
  10244f:	48 81 ec 82 00 00 00 	sub    $0x82,%rsp
  102456:	50                   	push   %rax
  102457:	51                   	push   %rcx
  102458:	52                   	push   %rdx
  102459:	56                   	push   %rsi
  10245a:	57                   	push   %rdi
  10245b:	41 50                	push   %r8
  10245d:	41 51                	push   %r9
  10245f:	41 52                	push   %r10
  102461:	41 53                	push   %r11
  102463:	fc                   	cld    
  102464:	ff 14 25 78 a0 10 00 	callq  *0x10a078
  10246b:	b0 20                	mov    $0x20,%al
  10246d:	e6 20                	out    %al,$0x20
  10246f:	41 5b                	pop    %r11
  102471:	41 5a                	pop    %r10
  102473:	41 59                	pop    %r9
  102475:	41 58                	pop    %r8
  102477:	5f                   	pop    %rdi
  102478:	5e                   	pop    %rsi
  102479:	5a                   	pop    %rdx
  10247a:	59                   	pop    %rcx
  10247b:	58                   	pop    %rax
  10247c:	48 81 c4 82 00 00 00 	add    $0x82,%rsp
  102483:	48 cf                	iretq  

0000000000102485 <interrupt_shim_16>:
  102485:	48 81 ec 82 00 00 00 	sub    $0x82,%rsp
  10248c:	50                   	push   %rax
  10248d:	51                   	push   %rcx
  10248e:	52                   	push   %rdx
  10248f:	56                   	push   %rsi
  102490:	57                   	push   %rdi
  102491:	41 50                	push   %r8
  102493:	41 51                	push   %r9
  102495:	41 52                	push   %r10
  102497:	41 53                	push   %r11
  102499:	fc                   	cld    
  10249a:	ff 14 25 80 a0 10 00 	callq  *0x10a080
  1024a1:	b0 20                	mov    $0x20,%al
  1024a3:	e6 20                	out    %al,$0x20
  1024a5:	41 5b                	pop    %r11
  1024a7:	41 5a                	pop    %r10
  1024a9:	41 59                	pop    %r9
  1024ab:	41 58                	pop    %r8
  1024ad:	5f                   	pop    %rdi
  1024ae:	5e                   	pop    %rsi
  1024af:	5a                   	pop    %rdx
  1024b0:	59                   	pop    %rcx
  1024b1:	58                   	pop    %rax
  1024b2:	48 81 c4 82 00 00 00 	add    $0x82,%rsp
  1024b9:	48 cf                	iretq  

00000000001024bb <interrupt_shim_17>:
  1024bb:	48 81 ec 82 00 00 00 	sub    $0x82,%rsp
  1024c2:	50                   	push   %rax
  1024c3:	51                   	push   %rcx
  1024c4:	52                   	push   %rdx
  1024c5:	56                   	push   %rsi
  1024c6:	57                   	push   %rdi
  1024c7:	41 50                	push   %r8
  1024c9:	41 51                	push   %r9
  1024cb:	41 52                	push   %r10
  1024cd:	41 53                	push   %r11
  1024cf:	fc                   	cld    
  1024d0:	ff 14 25 88 a0 10 00 	callq  *0x10a088
  1024d7:	b0 20                	mov    $0x20,%al
  1024d9:	e6 20                	out    %al,$0x20
  1024db:	41 5b                	pop    %r11
  1024dd:	41 5a                	pop    %r10
  1024df:	41 59                	pop    %r9
  1024e1:	41 58                	pop    %r8
  1024e3:	5f                   	pop    %rdi
  1024e4:	5e                   	pop    %rsi
  1024e5:	5a                   	pop    %rdx
  1024e6:	59                   	pop    %rcx
  1024e7:	58                   	pop    %rax
  1024e8:	48 81 c4 82 00 00 00 	add    $0x82,%rsp
  1024ef:	48 cf                	iretq  

00000000001024f1 <interrupt_shim_18>:
  1024f1:	48 81 ec 82 00 00 00 	sub    $0x82,%rsp
  1024f8:	50                   	push   %rax
  1024f9:	51                   	push   %rcx
  1024fa:	52                   	push   %rdx
  1024fb:	56                   	push   %rsi
  1024fc:	57                   	push   %rdi
  1024fd:	41 50                	push   %r8
  1024ff:	41 51                	push   %r9
  102501:	41 52                	push   %r10
  102503:	41 53                	push   %r11
  102505:	fc                   	cld    
  102506:	ff 14 25 90 a0 10 00 	callq  *0x10a090
  10250d:	b0 20                	mov    $0x20,%al
  10250f:	e6 20                	out    %al,$0x20
  102511:	41 5b                	pop    %r11
  102513:	41 5a                	pop    %r10
  102515:	41 59                	pop    %r9
  102517:	41 58                	pop    %r8
  102519:	5f                   	pop    %rdi
  10251a:	5e                   	pop    %rsi
  10251b:	5a                   	pop    %rdx
  10251c:	59                   	pop    %rcx
  10251d:	58                   	pop    %rax
  10251e:	48 81 c4 82 00 00 00 	add    $0x82,%rsp
  102525:	48 cf                	iretq  

0000000000102527 <interrupt_shim_19>:
  102527:	48 81 ec 82 00 00 00 	sub    $0x82,%rsp
  10252e:	50                   	push   %rax
  10252f:	51                   	push   %rcx
  102530:	52                   	push   %rdx
  102531:	56                   	push   %rsi
  102532:	57                   	push   %rdi
  102533:	41 50                	push   %r8
  102535:	41 51                	push   %r9
  102537:	41 52                	push   %r10
  102539:	41 53                	push   %r11
  10253b:	fc                   	cld    
  10253c:	ff 14 25 98 a0 10 00 	callq  *0x10a098
  102543:	b0 20                	mov    $0x20,%al
  102545:	e6 20                	out    %al,$0x20
  102547:	41 5b                	pop    %r11
  102549:	41 5a                	pop    %r10
  10254b:	41 59                	pop    %r9
  10254d:	41 58                	pop    %r8
  10254f:	5f                   	pop    %rdi
  102550:	5e                   	pop    %rsi
  102551:	5a                   	pop    %rdx
  102552:	59                   	pop    %rcx
  102553:	58                   	pop    %rax
  102554:	48 81 c4 82 00 00 00 	add    $0x82,%rsp
  10255b:	48 cf                	iretq  

000000000010255d <interrupt_shim_20>:
  10255d:	48 81 ec 82 00 00 00 	sub    $0x82,%rsp
  102564:	50                   	push   %rax
  102565:	51                   	push   %rcx
  102566:	52                   	push   %rdx
  102567:	56                   	push   %rsi
  102568:	57                   	push   %rdi
  102569:	41 50                	push   %r8
  10256b:	41 51                	push   %r9
  10256d:	41 52                	push   %r10
  10256f:	41 53                	push   %r11
  102571:	fc                   	cld    
  102572:	ff 14 25 a0 a0 10 00 	callq  *0x10a0a0
  102579:	b0 20                	mov    $0x20,%al
  10257b:	e6 20                	out    %al,$0x20
  10257d:	41 5b                	pop    %r11
  10257f:	41 5a                	pop    %r10
  102581:	41 59                	pop    %r9
  102583:	41 58                	pop    %r8
  102585:	5f                   	pop    %rdi
  102586:	5e                   	pop    %rsi
  102587:	5a                   	pop    %rdx
  102588:	59                   	pop    %rcx
  102589:	58                   	pop    %rax
  10258a:	48 81 c4 82 00 00 00 	add    $0x82,%rsp
  102591:	48 cf                	iretq  

0000000000102593 <interrupt_shim_21>:
  102593:	48 81 ec 82 00 00 00 	sub    $0x82,%rsp
  10259a:	50                   	push   %rax
  10259b:	51                   	push   %rcx
  10259c:	52                   	push   %rdx
  10259d:	56                   	push   %rsi
  10259e:	57                   	push   %rdi
  10259f:	41 50                	push   %r8
  1025a1:	41 51                	push   %r9
  1025a3:	41 52                	push   %r10
  1025a5:	41 53                	push   %r11
  1025a7:	fc                   	cld    
  1025a8:	ff 14 25 a8 a0 10 00 	callq  *0x10a0a8
  1025af:	b0 20                	mov    $0x20,%al
  1025b1:	e6 20                	out    %al,$0x20
  1025b3:	41 5b                	pop    %r11
  1025b5:	41 5a                	pop    %r10
  1025b7:	41 59                	pop    %r9
  1025b9:	41 58                	pop    %r8
  1025bb:	5f                   	pop    %rdi
  1025bc:	5e                   	pop    %rsi
  1025bd:	5a                   	pop    %rdx
  1025be:	59                   	pop    %rcx
  1025bf:	58                   	pop    %rax
  1025c0:	48 81 c4 82 00 00 00 	add    $0x82,%rsp
  1025c7:	48 cf                	iretq  

00000000001025c9 <interrupt_shim_22>:
  1025c9:	48 81 ec 82 00 00 00 	sub    $0x82,%rsp
  1025d0:	50                   	push   %rax
  1025d1:	51                   	push   %rcx
  1025d2:	52                   	push   %rdx
  1025d3:	56                   	push   %rsi
  1025d4:	57                   	push   %rdi
  1025d5:	41 50                	push   %r8
  1025d7:	41 51                	push   %r9
  1025d9:	41 52                	push   %r10
  1025db:	41 53                	push   %r11
  1025dd:	fc                   	cld    
  1025de:	ff 14 25 b0 a0 10 00 	callq  *0x10a0b0
  1025e5:	b0 20                	mov    $0x20,%al
  1025e7:	e6 20                	out    %al,$0x20
  1025e9:	41 5b                	pop    %r11
  1025eb:	41 5a                	pop    %r10
  1025ed:	41 59                	pop    %r9
  1025ef:	41 58                	pop    %r8
  1025f1:	5f                   	pop    %rdi
  1025f2:	5e                   	pop    %rsi
  1025f3:	5a                   	pop    %rdx
  1025f4:	59                   	pop    %rcx
  1025f5:	58                   	pop    %rax
  1025f6:	48 81 c4 82 00 00 00 	add    $0x82,%rsp
  1025fd:	48 cf                	iretq  

00000000001025ff <interrupt_shim_23>:
  1025ff:	48 81 ec 82 00 00 00 	sub    $0x82,%rsp
  102606:	50                   	push   %rax
  102607:	51                   	push   %rcx
  102608:	52                   	push   %rdx
  102609:	56                   	push   %rsi
  10260a:	57                   	push   %rdi
  10260b:	41 50                	push   %r8
  10260d:	41 51                	push   %r9
  10260f:	41 52                	push   %r10
  102611:	41 53                	push   %r11
  102613:	fc                   	cld    
  102614:	ff 14 25 b8 a0 10 00 	callq  *0x10a0b8
  10261b:	b0 20                	mov    $0x20,%al
  10261d:	e6 20                	out    %al,$0x20
  10261f:	41 5b                	pop    %r11
  102621:	41 5a                	pop    %r10
  102623:	41 59                	pop    %r9
  102625:	41 58                	pop    %r8
  102627:	5f                   	pop    %rdi
  102628:	5e                   	pop    %rsi
  102629:	5a                   	pop    %rdx
  10262a:	59                   	pop    %rcx
  10262b:	58                   	pop    %rax
  10262c:	48 81 c4 82 00 00 00 	add    $0x82,%rsp
  102633:	48 cf                	iretq  

0000000000102635 <interrupt_shim_24>:
  102635:	48 81 ec 82 00 00 00 	sub    $0x82,%rsp
  10263c:	50                   	push   %rax
  10263d:	51                   	push   %rcx
  10263e:	52                   	push   %rdx
  10263f:	56                   	push   %rsi
  102640:	57                   	push   %rdi
  102641:	41 50                	push   %r8
  102643:	41 51                	push   %r9
  102645:	41 52                	push   %r10
  102647:	41 53                	push   %r11
  102649:	fc                   	cld    
  10264a:	ff 14 25 c0 a0 10 00 	callq  *0x10a0c0
  102651:	b0 20                	mov    $0x20,%al
  102653:	e6 20                	out    %al,$0x20
  102655:	41 5b                	pop    %r11
  102657:	41 5a                	pop    %r10
  102659:	41 59                	pop    %r9
  10265b:	41 58                	pop    %r8
  10265d:	5f                   	pop    %rdi
  10265e:	5e                   	pop    %rsi
  10265f:	5a                   	pop    %rdx
  102660:	59                   	pop    %rcx
  102661:	58                   	pop    %rax
  102662:	48 81 c4 82 00 00 00 	add    $0x82,%rsp
  102669:	48 cf                	iretq  

000000000010266b <interrupt_shim_25>:
  10266b:	48 81 ec 82 00 00 00 	sub    $0x82,%rsp
  102672:	50                   	push   %rax
  102673:	51                   	push   %rcx
  102674:	52                   	push   %rdx
  102675:	56                   	push   %rsi
  102676:	57                   	push   %rdi
  102677:	41 50                	push   %r8
  102679:	41 51                	push   %r9
  10267b:	41 52                	push   %r10
  10267d:	41 53                	push   %r11
  10267f:	fc                   	cld    
  102680:	ff 14 25 c8 a0 10 00 	callq  *0x10a0c8
  102687:	b0 20                	mov    $0x20,%al
  102689:	e6 20                	out    %al,$0x20
  10268b:	41 5b                	pop    %r11
  10268d:	41 5a                	pop    %r10
  10268f:	41 59                	pop    %r9
  102691:	41 58                	pop    %r8
  102693:	5f                   	pop    %rdi
  102694:	5e                   	pop    %rsi
  102695:	5a                   	pop    %rdx
  102696:	59                   	pop    %rcx
  102697:	58                   	pop    %rax
  102698:	48 81 c4 82 00 00 00 	add    $0x82,%rsp
  10269f:	48 cf                	iretq  

00000000001026a1 <interrupt_shim_26>:
  1026a1:	48 81 ec 82 00 00 00 	sub    $0x82,%rsp
  1026a8:	50                   	push   %rax
  1026a9:	51                   	push   %rcx
  1026aa:	52                   	push   %rdx
  1026ab:	56                   	push   %rsi
  1026ac:	57                   	push   %rdi
  1026ad:	41 50                	push   %r8
  1026af:	41 51                	push   %r9
  1026b1:	41 52                	push   %r10
  1026b3:	41 53                	push   %r11
  1026b5:	fc                   	cld    
  1026b6:	ff 14 25 d0 a0 10 00 	callq  *0x10a0d0
  1026bd:	b0 20                	mov    $0x20,%al
  1026bf:	e6 20                	out    %al,$0x20
  1026c1:	41 5b                	pop    %r11
  1026c3:	41 5a                	pop    %r10
  1026c5:	41 59                	pop    %r9
  1026c7:	41 58                	pop    %r8
  1026c9:	5f                   	pop    %rdi
  1026ca:	5e                   	pop    %rsi
  1026cb:	5a                   	pop    %rdx
  1026cc:	59                   	pop    %rcx
  1026cd:	58                   	pop    %rax
  1026ce:	48 81 c4 82 00 00 00 	add    $0x82,%rsp
  1026d5:	48 cf                	iretq  

00000000001026d7 <interrupt_shim_27>:
  1026d7:	48 81 ec 82 00 00 00 	sub    $0x82,%rsp
  1026de:	50                   	push   %rax
  1026df:	51                   	push   %rcx
  1026e0:	52                   	push   %rdx
  1026e1:	56                   	push   %rsi
  1026e2:	57                   	push   %rdi
  1026e3:	41 50                	push   %r8
  1026e5:	41 51                	push   %r9
  1026e7:	41 52                	push   %r10
  1026e9:	41 53                	push   %r11
  1026eb:	fc                   	cld    
  1026ec:	ff 14 25 d8 a0 10 00 	callq  *0x10a0d8
  1026f3:	b0 20                	mov    $0x20,%al
  1026f5:	e6 20                	out    %al,$0x20
  1026f7:	41 5b                	pop    %r11
  1026f9:	41 5a                	pop    %r10
  1026fb:	41 59                	pop    %r9
  1026fd:	41 58                	pop    %r8
  1026ff:	5f                   	pop    %rdi
  102700:	5e                   	pop    %rsi
  102701:	5a                   	pop    %rdx
  102702:	59                   	pop    %rcx
  102703:	58                   	pop    %rax
  102704:	48 81 c4 82 00 00 00 	add    $0x82,%rsp
  10270b:	48 cf                	iretq  

000000000010270d <interrupt_shim_28>:
  10270d:	48 81 ec 82 00 00 00 	sub    $0x82,%rsp
  102714:	50                   	push   %rax
  102715:	51                   	push   %rcx
  102716:	52                   	push   %rdx
  102717:	56                   	push   %rsi
  102718:	57                   	push   %rdi
  102719:	41 50                	push   %r8
  10271b:	41 51                	push   %r9
  10271d:	41 52                	push   %r10
  10271f:	41 53                	push   %r11
  102721:	fc                   	cld    
  102722:	ff 14 25 e0 a0 10 00 	callq  *0x10a0e0
  102729:	b0 20                	mov    $0x20,%al
  10272b:	e6 20                	out    %al,$0x20
  10272d:	41 5b                	pop    %r11
  10272f:	41 5a                	pop    %r10
  102731:	41 59                	pop    %r9
  102733:	41 58                	pop    %r8
  102735:	5f                   	pop    %rdi
  102736:	5e                   	pop    %rsi
  102737:	5a                   	pop    %rdx
  102738:	59                   	pop    %rcx
  102739:	58                   	pop    %rax
  10273a:	48 81 c4 82 00 00 00 	add    $0x82,%rsp
  102741:	48 cf                	iretq  

0000000000102743 <interrupt_shim_29>:
  102743:	48 81 ec 82 00 00 00 	sub    $0x82,%rsp
  10274a:	50                   	push   %rax
  10274b:	51                   	push   %rcx
  10274c:	52                   	push   %rdx
  10274d:	56                   	push   %rsi
  10274e:	57                   	push   %rdi
  10274f:	41 50                	push   %r8
  102751:	41 51                	push   %r9
  102753:	41 52                	push   %r10
  102755:	41 53                	push   %r11
  102757:	fc                   	cld    
  102758:	ff 14 25 e8 a0 10 00 	callq  *0x10a0e8
  10275f:	b0 20                	mov    $0x20,%al
  102761:	e6 20                	out    %al,$0x20
  102763:	41 5b                	pop    %r11
  102765:	41 5a                	pop    %r10
  102767:	41 59                	pop    %r9
  102769:	41 58                	pop    %r8
  10276b:	5f                   	pop    %rdi
  10276c:	5e                   	pop    %rsi
  10276d:	5a                   	pop    %rdx
  10276e:	59                   	pop    %rcx
  10276f:	58                   	pop    %rax
  102770:	48 81 c4 82 00 00 00 	add    $0x82,%rsp
  102777:	48 cf                	iretq  

0000000000102779 <interrupt_shim_30>:
  102779:	48 81 ec 82 00 00 00 	sub    $0x82,%rsp
  102780:	50                   	push   %rax
  102781:	51                   	push   %rcx
  102782:	52                   	push   %rdx
  102783:	56                   	push   %rsi
  102784:	57                   	push   %rdi
  102785:	41 50                	push   %r8
  102787:	41 51                	push   %r9
  102789:	41 52                	push   %r10
  10278b:	41 53                	push   %r11
  10278d:	fc                   	cld    
  10278e:	ff 14 25 f0 a0 10 00 	callq  *0x10a0f0
  102795:	b0 20                	mov    $0x20,%al
  102797:	e6 20                	out    %al,$0x20
  102799:	41 5b                	pop    %r11
  10279b:	41 5a                	pop    %r10
  10279d:	41 59                	pop    %r9
  10279f:	41 58                	pop    %r8
  1027a1:	5f                   	pop    %rdi
  1027a2:	5e                   	pop    %rsi
  1027a3:	5a                   	pop    %rdx
  1027a4:	59                   	pop    %rcx
  1027a5:	58                   	pop    %rax
  1027a6:	48 81 c4 82 00 00 00 	add    $0x82,%rsp
  1027ad:	48 cf                	iretq  

00000000001027af <interrupt_shim_31>:
  1027af:	48 81 ec 82 00 00 00 	sub    $0x82,%rsp
  1027b6:	50                   	push   %rax
  1027b7:	51                   	push   %rcx
  1027b8:	52                   	push   %rdx
  1027b9:	56                   	push   %rsi
  1027ba:	57                   	push   %rdi
  1027bb:	41 50                	push   %r8
  1027bd:	41 51                	push   %r9
  1027bf:	41 52                	push   %r10
  1027c1:	41 53                	push   %r11
  1027c3:	fc                   	cld    
  1027c4:	ff 14 25 f8 a0 10 00 	callq  *0x10a0f8
  1027cb:	b0 20                	mov    $0x20,%al
  1027cd:	e6 20                	out    %al,$0x20
  1027cf:	41 5b                	pop    %r11
  1027d1:	41 5a                	pop    %r10
  1027d3:	41 59                	pop    %r9
  1027d5:	41 58                	pop    %r8
  1027d7:	5f                   	pop    %rdi
  1027d8:	5e                   	pop    %rsi
  1027d9:	5a                   	pop    %rdx
  1027da:	59                   	pop    %rcx
  1027db:	58                   	pop    %rax
  1027dc:	48 81 c4 82 00 00 00 	add    $0x82,%rsp
  1027e3:	48 cf                	iretq  

00000000001027e5 <interrupt_shim_32>:
  1027e5:	48 81 ec 82 00 00 00 	sub    $0x82,%rsp
  1027ec:	50                   	push   %rax
  1027ed:	51                   	push   %rcx
  1027ee:	52                   	push   %rdx
  1027ef:	56                   	push   %rsi
  1027f0:	57                   	push   %rdi
  1027f1:	41 50                	push   %r8
  1027f3:	41 51                	push   %r9
  1027f5:	41 52                	push   %r10
  1027f7:	41 53                	push   %r11
  1027f9:	fc                   	cld    
  1027fa:	ff 14 25 00 a1 10 00 	callq  *0x10a100
  102801:	b0 20                	mov    $0x20,%al
  102803:	e6 20                	out    %al,$0x20
  102805:	41 5b                	pop    %r11
  102807:	41 5a                	pop    %r10
  102809:	41 59                	pop    %r9
  10280b:	41 58                	pop    %r8
  10280d:	5f                   	pop    %rdi
  10280e:	5e                   	pop    %rsi
  10280f:	5a                   	pop    %rdx
  102810:	59                   	pop    %rcx
  102811:	58                   	pop    %rax
  102812:	48 81 c4 82 00 00 00 	add    $0x82,%rsp
  102819:	48 cf                	iretq  

000000000010281b <interrupt_shim_33>:
  10281b:	48 81 ec 82 00 00 00 	sub    $0x82,%rsp
  102822:	50                   	push   %rax
  102823:	51                   	push   %rcx
  102824:	52                   	push   %rdx
  102825:	56                   	push   %rsi
  102826:	57                   	push   %rdi
  102827:	41 50                	push   %r8
  102829:	41 51                	push   %r9
  10282b:	41 52                	push   %r10
  10282d:	41 53                	push   %r11
  10282f:	fc                   	cld    
  102830:	ff 14 25 08 a1 10 00 	callq  *0x10a108
  102837:	b0 20                	mov    $0x20,%al
  102839:	e6 20                	out    %al,$0x20
  10283b:	41 5b                	pop    %r11
  10283d:	41 5a                	pop    %r10
  10283f:	41 59                	pop    %r9
  102841:	41 58                	pop    %r8
  102843:	5f                   	pop    %rdi
  102844:	5e                   	pop    %rsi
  102845:	5a                   	pop    %rdx
  102846:	59                   	pop    %rcx
  102847:	58                   	pop    %rax
  102848:	48 81 c4 82 00 00 00 	add    $0x82,%rsp
  10284f:	48 cf                	iretq  

0000000000102851 <interrupt_shim_34>:
  102851:	48 81 ec 82 00 00 00 	sub    $0x82,%rsp
  102858:	50                   	push   %rax
  102859:	51                   	push   %rcx
  10285a:	52                   	push   %rdx
  10285b:	56                   	push   %rsi
  10285c:	57                   	push   %rdi
  10285d:	41 50                	push   %r8
  10285f:	41 51                	push   %r9
  102861:	41 52                	push   %r10
  102863:	41 53                	push   %r11
  102865:	fc                   	cld    
  102866:	ff 14 25 10 a1 10 00 	callq  *0x10a110
  10286d:	b0 20                	mov    $0x20,%al
  10286f:	e6 20                	out    %al,$0x20
  102871:	41 5b                	pop    %r11
  102873:	41 5a                	pop    %r10
  102875:	41 59                	pop    %r9
  102877:	41 58                	pop    %r8
  102879:	5f                   	pop    %rdi
  10287a:	5e                   	pop    %rsi
  10287b:	5a                   	pop    %rdx
  10287c:	59                   	pop    %rcx
  10287d:	58                   	pop    %rax
  10287e:	48 81 c4 82 00 00 00 	add    $0x82,%rsp
  102885:	48 cf                	iretq  

0000000000102887 <interrupt_shim_35>:
  102887:	48 81 ec 82 00 00 00 	sub    $0x82,%rsp
  10288e:	50                   	push   %rax
  10288f:	51                   	push   %rcx
  102890:	52                   	push   %rdx
  102891:	56                   	push   %rsi
  102892:	57                   	push   %rdi
  102893:	41 50                	push   %r8
  102895:	41 51                	push   %r9
  102897:	41 52                	push   %r10
  102899:	41 53                	push   %r11
  10289b:	fc                   	cld    
  10289c:	ff 14 25 18 a1 10 00 	callq  *0x10a118
  1028a3:	b0 20                	mov    $0x20,%al
  1028a5:	e6 20                	out    %al,$0x20
  1028a7:	41 5b                	pop    %r11
  1028a9:	41 5a                	pop    %r10
  1028ab:	41 59                	pop    %r9
  1028ad:	41 58                	pop    %r8
  1028af:	5f                   	pop    %rdi
  1028b0:	5e                   	pop    %rsi
  1028b1:	5a                   	pop    %rdx
  1028b2:	59                   	pop    %rcx
  1028b3:	58                   	pop    %rax
  1028b4:	48 81 c4 82 00 00 00 	add    $0x82,%rsp
  1028bb:	48 cf                	iretq  

00000000001028bd <interrupt_shim_36>:
  1028bd:	48 81 ec 82 00 00 00 	sub    $0x82,%rsp
  1028c4:	50                   	push   %rax
  1028c5:	51                   	push   %rcx
  1028c6:	52                   	push   %rdx
  1028c7:	56                   	push   %rsi
  1028c8:	57                   	push   %rdi
  1028c9:	41 50                	push   %r8
  1028cb:	41 51                	push   %r9
  1028cd:	41 52                	push   %r10
  1028cf:	41 53                	push   %r11
  1028d1:	fc                   	cld    
  1028d2:	ff 14 25 20 a1 10 00 	callq  *0x10a120
  1028d9:	b0 20                	mov    $0x20,%al
  1028db:	e6 20                	out    %al,$0x20
  1028dd:	41 5b                	pop    %r11
  1028df:	41 5a                	pop    %r10
  1028e1:	41 59                	pop    %r9
  1028e3:	41 58                	pop    %r8
  1028e5:	5f                   	pop    %rdi
  1028e6:	5e                   	pop    %rsi
  1028e7:	5a                   	pop    %rdx
  1028e8:	59                   	pop    %rcx
  1028e9:	58                   	pop    %rax
  1028ea:	48 81 c4 82 00 00 00 	add    $0x82,%rsp
  1028f1:	48 cf                	iretq  

00000000001028f3 <interrupt_shim_37>:
  1028f3:	48 81 ec 82 00 00 00 	sub    $0x82,%rsp
  1028fa:	50                   	push   %rax
  1028fb:	51                   	push   %rcx
  1028fc:	52                   	push   %rdx
  1028fd:	56                   	push   %rsi
  1028fe:	57                   	push   %rdi
  1028ff:	41 50                	push   %r8
  102901:	41 51                	push   %r9
  102903:	41 52                	push   %r10
  102905:	41 53                	push   %r11
  102907:	fc                   	cld    
  102908:	ff 14 25 28 a1 10 00 	callq  *0x10a128
  10290f:	b0 20                	mov    $0x20,%al
  102911:	e6 20                	out    %al,$0x20
  102913:	41 5b                	pop    %r11
  102915:	41 5a                	pop    %r10
  102917:	41 59                	pop    %r9
  102919:	41 58                	pop    %r8
  10291b:	5f                   	pop    %rdi
  10291c:	5e                   	pop    %rsi
  10291d:	5a                   	pop    %rdx
  10291e:	59                   	pop    %rcx
  10291f:	58                   	pop    %rax
  102920:	48 81 c4 82 00 00 00 	add    $0x82,%rsp
  102927:	48 cf                	iretq  

0000000000102929 <interrupt_shim_38>:
  102929:	48 81 ec 82 00 00 00 	sub    $0x82,%rsp
  102930:	50                   	push   %rax
  102931:	51                   	push   %rcx
  102932:	52                   	push   %rdx
  102933:	56                   	push   %rsi
  102934:	57                   	push   %rdi
  102935:	41 50                	push   %r8
  102937:	41 51                	push   %r9
  102939:	41 52                	push   %r10
  10293b:	41 53                	push   %r11
  10293d:	fc                   	cld    
  10293e:	ff 14 25 30 a1 10 00 	callq  *0x10a130
  102945:	b0 20                	mov    $0x20,%al
  102947:	e6 20                	out    %al,$0x20
  102949:	41 5b                	pop    %r11
  10294b:	41 5a                	pop    %r10
  10294d:	41 59                	pop    %r9
  10294f:	41 58                	pop    %r8
  102951:	5f                   	pop    %rdi
  102952:	5e                   	pop    %rsi
  102953:	5a                   	pop    %rdx
  102954:	59                   	pop    %rcx
  102955:	58                   	pop    %rax
  102956:	48 81 c4 82 00 00 00 	add    $0x82,%rsp
  10295d:	48 cf                	iretq  

000000000010295f <interrupt_shim_39>:
  10295f:	48 81 ec 82 00 00 00 	sub    $0x82,%rsp
  102966:	50                   	push   %rax
  102967:	51                   	push   %rcx
  102968:	52                   	push   %rdx
  102969:	56                   	push   %rsi
  10296a:	57                   	push   %rdi
  10296b:	41 50                	push   %r8
  10296d:	41 51                	push   %r9
  10296f:	41 52                	push   %r10
  102971:	41 53                	push   %r11
  102973:	fc                   	cld    
  102974:	ff 14 25 38 a1 10 00 	callq  *0x10a138
  10297b:	b0 20                	mov    $0x20,%al
  10297d:	e6 20                	out    %al,$0x20
  10297f:	41 5b                	pop    %r11
  102981:	41 5a                	pop    %r10
  102983:	41 59                	pop    %r9
  102985:	41 58                	pop    %r8
  102987:	5f                   	pop    %rdi
  102988:	5e                   	pop    %rsi
  102989:	5a                   	pop    %rdx
  10298a:	59                   	pop    %rcx
  10298b:	58                   	pop    %rax
  10298c:	48 81 c4 82 00 00 00 	add    $0x82,%rsp
  102993:	48 cf                	iretq  

0000000000102995 <interrupt_shim_40>:
  102995:	48 81 ec 82 00 00 00 	sub    $0x82,%rsp
  10299c:	50                   	push   %rax
  10299d:	51                   	push   %rcx
  10299e:	52                   	push   %rdx
  10299f:	56                   	push   %rsi
  1029a0:	57                   	push   %rdi
  1029a1:	41 50                	push   %r8
  1029a3:	41 51                	push   %r9
  1029a5:	41 52                	push   %r10
  1029a7:	41 53                	push   %r11
  1029a9:	fc                   	cld    
  1029aa:	ff 14 25 40 a1 10 00 	callq  *0x10a140
  1029b1:	b0 20                	mov    $0x20,%al
  1029b3:	e6 20                	out    %al,$0x20
  1029b5:	41 5b                	pop    %r11
  1029b7:	41 5a                	pop    %r10
  1029b9:	41 59                	pop    %r9
  1029bb:	41 58                	pop    %r8
  1029bd:	5f                   	pop    %rdi
  1029be:	5e                   	pop    %rsi
  1029bf:	5a                   	pop    %rdx
  1029c0:	59                   	pop    %rcx
  1029c1:	58                   	pop    %rax
  1029c2:	48 81 c4 82 00 00 00 	add    $0x82,%rsp
  1029c9:	48 cf                	iretq  

00000000001029cb <interrupt_shim_41>:
  1029cb:	48 81 ec 82 00 00 00 	sub    $0x82,%rsp
  1029d2:	50                   	push   %rax
  1029d3:	51                   	push   %rcx
  1029d4:	52                   	push   %rdx
  1029d5:	56                   	push   %rsi
  1029d6:	57                   	push   %rdi
  1029d7:	41 50                	push   %r8
  1029d9:	41 51                	push   %r9
  1029db:	41 52                	push   %r10
  1029dd:	41 53                	push   %r11
  1029df:	fc                   	cld    
  1029e0:	ff 14 25 48 a1 10 00 	callq  *0x10a148
  1029e7:	b0 20                	mov    $0x20,%al
  1029e9:	e6 20                	out    %al,$0x20
  1029eb:	41 5b                	pop    %r11
  1029ed:	41 5a                	pop    %r10
  1029ef:	41 59                	pop    %r9
  1029f1:	41 58                	pop    %r8
  1029f3:	5f                   	pop    %rdi
  1029f4:	5e                   	pop    %rsi
  1029f5:	5a                   	pop    %rdx
  1029f6:	59                   	pop    %rcx
  1029f7:	58                   	pop    %rax
  1029f8:	48 81 c4 82 00 00 00 	add    $0x82,%rsp
  1029ff:	48 cf                	iretq  

0000000000102a01 <interrupt_shim_42>:
  102a01:	48 81 ec 82 00 00 00 	sub    $0x82,%rsp
  102a08:	50                   	push   %rax
  102a09:	51                   	push   %rcx
  102a0a:	52                   	push   %rdx
  102a0b:	56                   	push   %rsi
  102a0c:	57                   	push   %rdi
  102a0d:	41 50                	push   %r8
  102a0f:	41 51                	push   %r9
  102a11:	41 52                	push   %r10
  102a13:	41 53                	push   %r11
  102a15:	fc                   	cld    
  102a16:	ff 14 25 50 a1 10 00 	callq  *0x10a150
  102a1d:	b0 20                	mov    $0x20,%al
  102a1f:	e6 20                	out    %al,$0x20
  102a21:	41 5b                	pop    %r11
  102a23:	41 5a                	pop    %r10
  102a25:	41 59                	pop    %r9
  102a27:	41 58                	pop    %r8
  102a29:	5f                   	pop    %rdi
  102a2a:	5e                   	pop    %rsi
  102a2b:	5a                   	pop    %rdx
  102a2c:	59                   	pop    %rcx
  102a2d:	58                   	pop    %rax
  102a2e:	48 81 c4 82 00 00 00 	add    $0x82,%rsp
  102a35:	48 cf                	iretq  

0000000000102a37 <interrupt_shim_43>:
  102a37:	48 81 ec 82 00 00 00 	sub    $0x82,%rsp
  102a3e:	50                   	push   %rax
  102a3f:	51                   	push   %rcx
  102a40:	52                   	push   %rdx
  102a41:	56                   	push   %rsi
  102a42:	57                   	push   %rdi
  102a43:	41 50                	push   %r8
  102a45:	41 51                	push   %r9
  102a47:	41 52                	push   %r10
  102a49:	41 53                	push   %r11
  102a4b:	fc                   	cld    
  102a4c:	ff 14 25 58 a1 10 00 	callq  *0x10a158
  102a53:	b0 20                	mov    $0x20,%al
  102a55:	e6 20                	out    %al,$0x20
  102a57:	41 5b                	pop    %r11
  102a59:	41 5a                	pop    %r10
  102a5b:	41 59                	pop    %r9
  102a5d:	41 58                	pop    %r8
  102a5f:	5f                   	pop    %rdi
  102a60:	5e                   	pop    %rsi
  102a61:	5a                   	pop    %rdx
  102a62:	59                   	pop    %rcx
  102a63:	58                   	pop    %rax
  102a64:	48 81 c4 82 00 00 00 	add    $0x82,%rsp
  102a6b:	48 cf                	iretq  

0000000000102a6d <interrupt_shim_44>:
  102a6d:	48 81 ec 82 00 00 00 	sub    $0x82,%rsp
  102a74:	50                   	push   %rax
  102a75:	51                   	push   %rcx
  102a76:	52                   	push   %rdx
  102a77:	56                   	push   %rsi
  102a78:	57                   	push   %rdi
  102a79:	41 50                	push   %r8
  102a7b:	41 51                	push   %r9
  102a7d:	41 52                	push   %r10
  102a7f:	41 53                	push   %r11
  102a81:	fc                   	cld    
  102a82:	ff 14 25 60 a1 10 00 	callq  *0x10a160
  102a89:	b0 20                	mov    $0x20,%al
  102a8b:	e6 20                	out    %al,$0x20
  102a8d:	41 5b                	pop    %r11
  102a8f:	41 5a                	pop    %r10
  102a91:	41 59                	pop    %r9
  102a93:	41 58                	pop    %r8
  102a95:	5f                   	pop    %rdi
  102a96:	5e                   	pop    %rsi
  102a97:	5a                   	pop    %rdx
  102a98:	59                   	pop    %rcx
  102a99:	58                   	pop    %rax
  102a9a:	48 81 c4 82 00 00 00 	add    $0x82,%rsp
  102aa1:	48 cf                	iretq  

0000000000102aa3 <interrupt_shim_45>:
  102aa3:	48 81 ec 82 00 00 00 	sub    $0x82,%rsp
  102aaa:	50                   	push   %rax
  102aab:	51                   	push   %rcx
  102aac:	52                   	push   %rdx
  102aad:	56                   	push   %rsi
  102aae:	57                   	push   %rdi
  102aaf:	41 50                	push   %r8
  102ab1:	41 51                	push   %r9
  102ab3:	41 52                	push   %r10
  102ab5:	41 53                	push   %r11
  102ab7:	fc                   	cld    
  102ab8:	ff 14 25 68 a1 10 00 	callq  *0x10a168
  102abf:	b0 20                	mov    $0x20,%al
  102ac1:	e6 20                	out    %al,$0x20
  102ac3:	41 5b                	pop    %r11
  102ac5:	41 5a                	pop    %r10
  102ac7:	41 59                	pop    %r9
  102ac9:	41 58                	pop    %r8
  102acb:	5f                   	pop    %rdi
  102acc:	5e                   	pop    %rsi
  102acd:	5a                   	pop    %rdx
  102ace:	59                   	pop    %rcx
  102acf:	58                   	pop    %rax
  102ad0:	48 81 c4 82 00 00 00 	add    $0x82,%rsp
  102ad7:	48 cf                	iretq  

0000000000102ad9 <interrupt_shim_46>:
  102ad9:	48 81 ec 82 00 00 00 	sub    $0x82,%rsp
  102ae0:	50                   	push   %rax
  102ae1:	51                   	push   %rcx
  102ae2:	52                   	push   %rdx
  102ae3:	56                   	push   %rsi
  102ae4:	57                   	push   %rdi
  102ae5:	41 50                	push   %r8
  102ae7:	41 51                	push   %r9
  102ae9:	41 52                	push   %r10
  102aeb:	41 53                	push   %r11
  102aed:	fc                   	cld    
  102aee:	ff 14 25 70 a1 10 00 	callq  *0x10a170
  102af5:	b0 20                	mov    $0x20,%al
  102af7:	e6 20                	out    %al,$0x20
  102af9:	41 5b                	pop    %r11
  102afb:	41 5a                	pop    %r10
  102afd:	41 59                	pop    %r9
  102aff:	41 58                	pop    %r8
  102b01:	5f                   	pop    %rdi
  102b02:	5e                   	pop    %rsi
  102b03:	5a                   	pop    %rdx
  102b04:	59                   	pop    %rcx
  102b05:	58                   	pop    %rax
  102b06:	48 81 c4 82 00 00 00 	add    $0x82,%rsp
  102b0d:	48 cf                	iretq  

0000000000102b0f <interrupt_shim_47>:
  102b0f:	48 81 ec 82 00 00 00 	sub    $0x82,%rsp
  102b16:	50                   	push   %rax
  102b17:	51                   	push   %rcx
  102b18:	52                   	push   %rdx
  102b19:	56                   	push   %rsi
  102b1a:	57                   	push   %rdi
  102b1b:	41 50                	push   %r8
  102b1d:	41 51                	push   %r9
  102b1f:	41 52                	push   %r10
  102b21:	41 53                	push   %r11
  102b23:	fc                   	cld    
  102b24:	ff 14 25 78 a1 10 00 	callq  *0x10a178
  102b2b:	b0 20                	mov    $0x20,%al
  102b2d:	e6 20                	out    %al,$0x20
  102b2f:	41 5b                	pop    %r11
  102b31:	41 5a                	pop    %r10
  102b33:	41 59                	pop    %r9
  102b35:	41 58                	pop    %r8
  102b37:	5f                   	pop    %rdi
  102b38:	5e                   	pop    %rsi
  102b39:	5a                   	pop    %rdx
  102b3a:	59                   	pop    %rcx
  102b3b:	58                   	pop    %rax
  102b3c:	48 81 c4 82 00 00 00 	add    $0x82,%rsp
  102b43:	48 cf                	iretq  

0000000000102b45 <interrupt_shim_48>:
  102b45:	48 81 ec 82 00 00 00 	sub    $0x82,%rsp
  102b4c:	50                   	push   %rax
  102b4d:	51                   	push   %rcx
  102b4e:	52                   	push   %rdx
  102b4f:	56                   	push   %rsi
  102b50:	57                   	push   %rdi
  102b51:	41 50                	push   %r8
  102b53:	41 51                	push   %r9
  102b55:	41 52                	push   %r10
  102b57:	41 53                	push   %r11
  102b59:	fc                   	cld    
  102b5a:	ff 14 25 80 a1 10 00 	callq  *0x10a180
  102b61:	b0 20                	mov    $0x20,%al
  102b63:	e6 20                	out    %al,$0x20
  102b65:	41 5b                	pop    %r11
  102b67:	41 5a                	pop    %r10
  102b69:	41 59                	pop    %r9
  102b6b:	41 58                	pop    %r8
  102b6d:	5f                   	pop    %rdi
  102b6e:	5e                   	pop    %rsi
  102b6f:	5a                   	pop    %rdx
  102b70:	59                   	pop    %rcx
  102b71:	58                   	pop    %rax
  102b72:	48 81 c4 82 00 00 00 	add    $0x82,%rsp
  102b79:	48 cf                	iretq  

0000000000102b7b <interrupt_shim_49>:
  102b7b:	48 81 ec 82 00 00 00 	sub    $0x82,%rsp
  102b82:	50                   	push   %rax
  102b83:	51                   	push   %rcx
  102b84:	52                   	push   %rdx
  102b85:	56                   	push   %rsi
  102b86:	57                   	push   %rdi
  102b87:	41 50                	push   %r8
  102b89:	41 51                	push   %r9
  102b8b:	41 52                	push   %r10
  102b8d:	41 53                	push   %r11
  102b8f:	fc                   	cld    
  102b90:	ff 14 25 88 a1 10 00 	callq  *0x10a188
  102b97:	b0 20                	mov    $0x20,%al
  102b99:	e6 20                	out    %al,$0x20
  102b9b:	41 5b                	pop    %r11
  102b9d:	41 5a                	pop    %r10
  102b9f:	41 59                	pop    %r9
  102ba1:	41 58                	pop    %r8
  102ba3:	5f                   	pop    %rdi
  102ba4:	5e                   	pop    %rsi
  102ba5:	5a                   	pop    %rdx
  102ba6:	59                   	pop    %rcx
  102ba7:	58                   	pop    %rax
  102ba8:	48 81 c4 82 00 00 00 	add    $0x82,%rsp
  102baf:	48 cf                	iretq  

0000000000102bb1 <interrupt_shim_50>:
  102bb1:	48 81 ec 82 00 00 00 	sub    $0x82,%rsp
  102bb8:	50                   	push   %rax
  102bb9:	51                   	push   %rcx
  102bba:	52                   	push   %rdx
  102bbb:	56                   	push   %rsi
  102bbc:	57                   	push   %rdi
  102bbd:	41 50                	push   %r8
  102bbf:	41 51                	push   %r9
  102bc1:	41 52                	push   %r10
  102bc3:	41 53                	push   %r11
  102bc5:	fc                   	cld    
  102bc6:	ff 14 25 90 a1 10 00 	callq  *0x10a190
  102bcd:	b0 20                	mov    $0x20,%al
  102bcf:	e6 20                	out    %al,$0x20
  102bd1:	41 5b                	pop    %r11
  102bd3:	41 5a                	pop    %r10
  102bd5:	41 59                	pop    %r9
  102bd7:	41 58                	pop    %r8
  102bd9:	5f                   	pop    %rdi
  102bda:	5e                   	pop    %rsi
  102bdb:	5a                   	pop    %rdx
  102bdc:	59                   	pop    %rcx
  102bdd:	58                   	pop    %rax
  102bde:	48 81 c4 82 00 00 00 	add    $0x82,%rsp
  102be5:	48 cf                	iretq  

0000000000102be7 <interrupt_shim_51>:
  102be7:	48 81 ec 82 00 00 00 	sub    $0x82,%rsp
  102bee:	50                   	push   %rax
  102bef:	51                   	push   %rcx
  102bf0:	52                   	push   %rdx
  102bf1:	56                   	push   %rsi
  102bf2:	57                   	push   %rdi
  102bf3:	41 50                	push   %r8
  102bf5:	41 51                	push   %r9
  102bf7:	41 52                	push   %r10
  102bf9:	41 53                	push   %r11
  102bfb:	fc                   	cld    
  102bfc:	ff 14 25 98 a1 10 00 	callq  *0x10a198
  102c03:	b0 20                	mov    $0x20,%al
  102c05:	e6 20                	out    %al,$0x20
  102c07:	41 5b                	pop    %r11
  102c09:	41 5a                	pop    %r10
  102c0b:	41 59                	pop    %r9
  102c0d:	41 58                	pop    %r8
  102c0f:	5f                   	pop    %rdi
  102c10:	5e                   	pop    %rsi
  102c11:	5a                   	pop    %rdx
  102c12:	59                   	pop    %rcx
  102c13:	58                   	pop    %rax
  102c14:	48 81 c4 82 00 00 00 	add    $0x82,%rsp
  102c1b:	48 cf                	iretq  

0000000000102c1d <interrupt_shim_52>:
  102c1d:	48 81 ec 82 00 00 00 	sub    $0x82,%rsp
  102c24:	50                   	push   %rax
  102c25:	51                   	push   %rcx
  102c26:	52                   	push   %rdx
  102c27:	56                   	push   %rsi
  102c28:	57                   	push   %rdi
  102c29:	41 50                	push   %r8
  102c2b:	41 51                	push   %r9
  102c2d:	41 52                	push   %r10
  102c2f:	41 53                	push   %r11
  102c31:	fc                   	cld    
  102c32:	ff 14 25 a0 a1 10 00 	callq  *0x10a1a0
  102c39:	b0 20                	mov    $0x20,%al
  102c3b:	e6 20                	out    %al,$0x20
  102c3d:	41 5b                	pop    %r11
  102c3f:	41 5a                	pop    %r10
  102c41:	41 59                	pop    %r9
  102c43:	41 58                	pop    %r8
  102c45:	5f                   	pop    %rdi
  102c46:	5e                   	pop    %rsi
  102c47:	5a                   	pop    %rdx
  102c48:	59                   	pop    %rcx
  102c49:	58                   	pop    %rax
  102c4a:	48 81 c4 82 00 00 00 	add    $0x82,%rsp
  102c51:	48 cf                	iretq  

0000000000102c53 <interrupt_shim_53>:
  102c53:	48 81 ec 82 00 00 00 	sub    $0x82,%rsp
  102c5a:	50                   	push   %rax
  102c5b:	51                   	push   %rcx
  102c5c:	52                   	push   %rdx
  102c5d:	56                   	push   %rsi
  102c5e:	57                   	push   %rdi
  102c5f:	41 50                	push   %r8
  102c61:	41 51                	push   %r9
  102c63:	41 52                	push   %r10
  102c65:	41 53                	push   %r11
  102c67:	fc                   	cld    
  102c68:	ff 14 25 a8 a1 10 00 	callq  *0x10a1a8
  102c6f:	b0 20                	mov    $0x20,%al
  102c71:	e6 20                	out    %al,$0x20
  102c73:	41 5b                	pop    %r11
  102c75:	41 5a                	pop    %r10
  102c77:	41 59                	pop    %r9
  102c79:	41 58                	pop    %r8
  102c7b:	5f                   	pop    %rdi
  102c7c:	5e                   	pop    %rsi
  102c7d:	5a                   	pop    %rdx
  102c7e:	59                   	pop    %rcx
  102c7f:	58                   	pop    %rax
  102c80:	48 81 c4 82 00 00 00 	add    $0x82,%rsp
  102c87:	48 cf                	iretq  

0000000000102c89 <interrupt_shim_54>:
  102c89:	48 81 ec 82 00 00 00 	sub    $0x82,%rsp
  102c90:	50                   	push   %rax
  102c91:	51                   	push   %rcx
  102c92:	52                   	push   %rdx
  102c93:	56                   	push   %rsi
  102c94:	57                   	push   %rdi
  102c95:	41 50                	push   %r8
  102c97:	41 51                	push   %r9
  102c99:	41 52                	push   %r10
  102c9b:	41 53                	push   %r11
  102c9d:	fc                   	cld    
  102c9e:	ff 14 25 b0 a1 10 00 	callq  *0x10a1b0
  102ca5:	b0 20                	mov    $0x20,%al
  102ca7:	e6 20                	out    %al,$0x20
  102ca9:	41 5b                	pop    %r11
  102cab:	41 5a                	pop    %r10
  102cad:	41 59                	pop    %r9
  102caf:	41 58                	pop    %r8
  102cb1:	5f                   	pop    %rdi
  102cb2:	5e                   	pop    %rsi
  102cb3:	5a                   	pop    %rdx
  102cb4:	59                   	pop    %rcx
  102cb5:	58                   	pop    %rax
  102cb6:	48 81 c4 82 00 00 00 	add    $0x82,%rsp
  102cbd:	48 cf                	iretq  

0000000000102cbf <interrupt_shim_55>:
  102cbf:	48 81 ec 82 00 00 00 	sub    $0x82,%rsp
  102cc6:	50                   	push   %rax
  102cc7:	51                   	push   %rcx
  102cc8:	52                   	push   %rdx
  102cc9:	56                   	push   %rsi
  102cca:	57                   	push   %rdi
  102ccb:	41 50                	push   %r8
  102ccd:	41 51                	push   %r9
  102ccf:	41 52                	push   %r10
  102cd1:	41 53                	push   %r11
  102cd3:	fc                   	cld    
  102cd4:	ff 14 25 b8 a1 10 00 	callq  *0x10a1b8
  102cdb:	b0 20                	mov    $0x20,%al
  102cdd:	e6 20                	out    %al,$0x20
  102cdf:	41 5b                	pop    %r11
  102ce1:	41 5a                	pop    %r10
  102ce3:	41 59                	pop    %r9
  102ce5:	41 58                	pop    %r8
  102ce7:	5f                   	pop    %rdi
  102ce8:	5e                   	pop    %rsi
  102ce9:	5a                   	pop    %rdx
  102cea:	59                   	pop    %rcx
  102ceb:	58                   	pop    %rax
  102cec:	48 81 c4 82 00 00 00 	add    $0x82,%rsp
  102cf3:	48 cf                	iretq  

0000000000102cf5 <interrupt_shim_56>:
  102cf5:	48 81 ec 82 00 00 00 	sub    $0x82,%rsp
  102cfc:	50                   	push   %rax
  102cfd:	51                   	push   %rcx
  102cfe:	52                   	push   %rdx
  102cff:	56                   	push   %rsi
  102d00:	57                   	push   %rdi
  102d01:	41 50                	push   %r8
  102d03:	41 51                	push   %r9
  102d05:	41 52                	push   %r10
  102d07:	41 53                	push   %r11
  102d09:	fc                   	cld    
  102d0a:	ff 14 25 c0 a1 10 00 	callq  *0x10a1c0
  102d11:	b0 20                	mov    $0x20,%al
  102d13:	e6 20                	out    %al,$0x20
  102d15:	41 5b                	pop    %r11
  102d17:	41 5a                	pop    %r10
  102d19:	41 59                	pop    %r9
  102d1b:	41 58                	pop    %r8
  102d1d:	5f                   	pop    %rdi
  102d1e:	5e                   	pop    %rsi
  102d1f:	5a                   	pop    %rdx
  102d20:	59                   	pop    %rcx
  102d21:	58                   	pop    %rax
  102d22:	48 81 c4 82 00 00 00 	add    $0x82,%rsp
  102d29:	48 cf                	iretq  

0000000000102d2b <interrupt_shim_57>:
  102d2b:	48 81 ec 82 00 00 00 	sub    $0x82,%rsp
  102d32:	50                   	push   %rax
  102d33:	51                   	push   %rcx
  102d34:	52                   	push   %rdx
  102d35:	56                   	push   %rsi
  102d36:	57                   	push   %rdi
  102d37:	41 50                	push   %r8
  102d39:	41 51                	push   %r9
  102d3b:	41 52                	push   %r10
  102d3d:	41 53                	push   %r11
  102d3f:	fc                   	cld    
  102d40:	ff 14 25 c8 a1 10 00 	callq  *0x10a1c8
  102d47:	b0 20                	mov    $0x20,%al
  102d49:	e6 20                	out    %al,$0x20
  102d4b:	41 5b                	pop    %r11
  102d4d:	41 5a                	pop    %r10
  102d4f:	41 59                	pop    %r9
  102d51:	41 58                	pop    %r8
  102d53:	5f                   	pop    %rdi
  102d54:	5e                   	pop    %rsi
  102d55:	5a                   	pop    %rdx
  102d56:	59                   	pop    %rcx
  102d57:	58                   	pop    %rax
  102d58:	48 81 c4 82 00 00 00 	add    $0x82,%rsp
  102d5f:	48 cf                	iretq  

0000000000102d61 <interrupt_shim_58>:
  102d61:	48 81 ec 82 00 00 00 	sub    $0x82,%rsp
  102d68:	50                   	push   %rax
  102d69:	51                   	push   %rcx
  102d6a:	52                   	push   %rdx
  102d6b:	56                   	push   %rsi
  102d6c:	57                   	push   %rdi
  102d6d:	41 50                	push   %r8
  102d6f:	41 51                	push   %r9
  102d71:	41 52                	push   %r10
  102d73:	41 53                	push   %r11
  102d75:	fc                   	cld    
  102d76:	ff 14 25 d0 a1 10 00 	callq  *0x10a1d0
  102d7d:	b0 20                	mov    $0x20,%al
  102d7f:	e6 20                	out    %al,$0x20
  102d81:	41 5b                	pop    %r11
  102d83:	41 5a                	pop    %r10
  102d85:	41 59                	pop    %r9
  102d87:	41 58                	pop    %r8
  102d89:	5f                   	pop    %rdi
  102d8a:	5e                   	pop    %rsi
  102d8b:	5a                   	pop    %rdx
  102d8c:	59                   	pop    %rcx
  102d8d:	58                   	pop    %rax
  102d8e:	48 81 c4 82 00 00 00 	add    $0x82,%rsp
  102d95:	48 cf                	iretq  

0000000000102d97 <interrupt_shim_59>:
  102d97:	48 81 ec 82 00 00 00 	sub    $0x82,%rsp
  102d9e:	50                   	push   %rax
  102d9f:	51                   	push   %rcx
  102da0:	52                   	push   %rdx
  102da1:	56                   	push   %rsi
  102da2:	57                   	push   %rdi
  102da3:	41 50                	push   %r8
  102da5:	41 51                	push   %r9
  102da7:	41 52                	push   %r10
  102da9:	41 53                	push   %r11
  102dab:	fc                   	cld    
  102dac:	ff 14 25 d8 a1 10 00 	callq  *0x10a1d8
  102db3:	b0 20                	mov    $0x20,%al
  102db5:	e6 20                	out    %al,$0x20
  102db7:	41 5b                	pop    %r11
  102db9:	41 5a                	pop    %r10
  102dbb:	41 59                	pop    %r9
  102dbd:	41 58                	pop    %r8
  102dbf:	5f                   	pop    %rdi
  102dc0:	5e                   	pop    %rsi
  102dc1:	5a                   	pop    %rdx
  102dc2:	59                   	pop    %rcx
  102dc3:	58                   	pop    %rax
  102dc4:	48 81 c4 82 00 00 00 	add    $0x82,%rsp
  102dcb:	48 cf                	iretq  

0000000000102dcd <interrupt_shim_60>:
  102dcd:	48 81 ec 82 00 00 00 	sub    $0x82,%rsp
  102dd4:	50                   	push   %rax
  102dd5:	51                   	push   %rcx
  102dd6:	52                   	push   %rdx
  102dd7:	56                   	push   %rsi
  102dd8:	57                   	push   %rdi
  102dd9:	41 50                	push   %r8
  102ddb:	41 51                	push   %r9
  102ddd:	41 52                	push   %r10
  102ddf:	41 53                	push   %r11
  102de1:	fc                   	cld    
  102de2:	ff 14 25 e0 a1 10 00 	callq  *0x10a1e0
  102de9:	b0 20                	mov    $0x20,%al
  102deb:	e6 20                	out    %al,$0x20
  102ded:	41 5b                	pop    %r11
  102def:	41 5a                	pop    %r10
  102df1:	41 59                	pop    %r9
  102df3:	41 58                	pop    %r8
  102df5:	5f                   	pop    %rdi
  102df6:	5e                   	pop    %rsi
  102df7:	5a                   	pop    %rdx
  102df8:	59                   	pop    %rcx
  102df9:	58                   	pop    %rax
  102dfa:	48 81 c4 82 00 00 00 	add    $0x82,%rsp
  102e01:	48 cf                	iretq  

0000000000102e03 <interrupt_shim_61>:
  102e03:	48 81 ec 82 00 00 00 	sub    $0x82,%rsp
  102e0a:	50                   	push   %rax
  102e0b:	51                   	push   %rcx
  102e0c:	52                   	push   %rdx
  102e0d:	56                   	push   %rsi
  102e0e:	57                   	push   %rdi
  102e0f:	41 50                	push   %r8
  102e11:	41 51                	push   %r9
  102e13:	41 52                	push   %r10
  102e15:	41 53                	push   %r11
  102e17:	fc                   	cld    
  102e18:	ff 14 25 e8 a1 10 00 	callq  *0x10a1e8
  102e1f:	b0 20                	mov    $0x20,%al
  102e21:	e6 20                	out    %al,$0x20
  102e23:	41 5b                	pop    %r11
  102e25:	41 5a                	pop    %r10
  102e27:	41 59                	pop    %r9
  102e29:	41 58                	pop    %r8
  102e2b:	5f                   	pop    %rdi
  102e2c:	5e                   	pop    %rsi
  102e2d:	5a                   	pop    %rdx
  102e2e:	59                   	pop    %rcx
  102e2f:	58                   	pop    %rax
  102e30:	48 81 c4 82 00 00 00 	add    $0x82,%rsp
  102e37:	48 cf                	iretq  

0000000000102e39 <interrupt_shim_62>:
  102e39:	48 81 ec 82 00 00 00 	sub    $0x82,%rsp
  102e40:	50                   	push   %rax
  102e41:	51                   	push   %rcx
  102e42:	52                   	push   %rdx
  102e43:	56                   	push   %rsi
  102e44:	57                   	push   %rdi
  102e45:	41 50                	push   %r8
  102e47:	41 51                	push   %r9
  102e49:	41 52                	push   %r10
  102e4b:	41 53                	push   %r11
  102e4d:	fc                   	cld    
  102e4e:	ff 14 25 f0 a1 10 00 	callq  *0x10a1f0
  102e55:	b0 20                	mov    $0x20,%al
  102e57:	e6 20                	out    %al,$0x20
  102e59:	41 5b                	pop    %r11
  102e5b:	41 5a                	pop    %r10
  102e5d:	41 59                	pop    %r9
  102e5f:	41 58                	pop    %r8
  102e61:	5f                   	pop    %rdi
  102e62:	5e                   	pop    %rsi
  102e63:	5a                   	pop    %rdx
  102e64:	59                   	pop    %rcx
  102e65:	58                   	pop    %rax
  102e66:	48 81 c4 82 00 00 00 	add    $0x82,%rsp
  102e6d:	48 cf                	iretq  

0000000000102e6f <interrupt_shim_63>:
  102e6f:	48 81 ec 82 00 00 00 	sub    $0x82,%rsp
  102e76:	50                   	push   %rax
  102e77:	51                   	push   %rcx
  102e78:	52                   	push   %rdx
  102e79:	56                   	push   %rsi
  102e7a:	57                   	push   %rdi
  102e7b:	41 50                	push   %r8
  102e7d:	41 51                	push   %r9
  102e7f:	41 52                	push   %r10
  102e81:	41 53                	push   %r11
  102e83:	fc                   	cld    
  102e84:	ff 14 25 f8 a1 10 00 	callq  *0x10a1f8
  102e8b:	b0 20                	mov    $0x20,%al
  102e8d:	e6 20                	out    %al,$0x20
  102e8f:	41 5b                	pop    %r11
  102e91:	41 5a                	pop    %r10
  102e93:	41 59                	pop    %r9
  102e95:	41 58                	pop    %r8
  102e97:	5f                   	pop    %rdi
  102e98:	5e                   	pop    %rsi
  102e99:	5a                   	pop    %rdx
  102e9a:	59                   	pop    %rcx
  102e9b:	58                   	pop    %rax
  102e9c:	48 81 c4 82 00 00 00 	add    $0x82,%rsp
  102ea3:	48 cf                	iretq  

0000000000102ea5 <interrupt_shim_64>:
  102ea5:	48 81 ec 82 00 00 00 	sub    $0x82,%rsp
  102eac:	50                   	push   %rax
  102ead:	51                   	push   %rcx
  102eae:	52                   	push   %rdx
  102eaf:	56                   	push   %rsi
  102eb0:	57                   	push   %rdi
  102eb1:	41 50                	push   %r8
  102eb3:	41 51                	push   %r9
  102eb5:	41 52                	push   %r10
  102eb7:	41 53                	push   %r11
  102eb9:	fc                   	cld    
  102eba:	ff 14 25 00 a2 10 00 	callq  *0x10a200
  102ec1:	b0 20                	mov    $0x20,%al
  102ec3:	e6 20                	out    %al,$0x20
  102ec5:	41 5b                	pop    %r11
  102ec7:	41 5a                	pop    %r10
  102ec9:	41 59                	pop    %r9
  102ecb:	41 58                	pop    %r8
  102ecd:	5f                   	pop    %rdi
  102ece:	5e                   	pop    %rsi
  102ecf:	5a                   	pop    %rdx
  102ed0:	59                   	pop    %rcx
  102ed1:	58                   	pop    %rax
  102ed2:	48 81 c4 82 00 00 00 	add    $0x82,%rsp
  102ed9:	48 cf                	iretq  

0000000000102edb <interrupt_shim_65>:
  102edb:	48 81 ec 82 00 00 00 	sub    $0x82,%rsp
  102ee2:	50                   	push   %rax
  102ee3:	51                   	push   %rcx
  102ee4:	52                   	push   %rdx
  102ee5:	56                   	push   %rsi
  102ee6:	57                   	push   %rdi
  102ee7:	41 50                	push   %r8
  102ee9:	41 51                	push   %r9
  102eeb:	41 52                	push   %r10
  102eed:	41 53                	push   %r11
  102eef:	fc                   	cld    
  102ef0:	ff 14 25 08 a2 10 00 	callq  *0x10a208
  102ef7:	b0 20                	mov    $0x20,%al
  102ef9:	e6 20                	out    %al,$0x20
  102efb:	41 5b                	pop    %r11
  102efd:	41 5a                	pop    %r10
  102eff:	41 59                	pop    %r9
  102f01:	41 58                	pop    %r8
  102f03:	5f                   	pop    %rdi
  102f04:	5e                   	pop    %rsi
  102f05:	5a                   	pop    %rdx
  102f06:	59                   	pop    %rcx
  102f07:	58                   	pop    %rax
  102f08:	48 81 c4 82 00 00 00 	add    $0x82,%rsp
  102f0f:	48 cf                	iretq  

0000000000102f11 <interrupt_shim_66>:
  102f11:	48 81 ec 82 00 00 00 	sub    $0x82,%rsp
  102f18:	50                   	push   %rax
  102f19:	51                   	push   %rcx
  102f1a:	52                   	push   %rdx
  102f1b:	56                   	push   %rsi
  102f1c:	57                   	push   %rdi
  102f1d:	41 50                	push   %r8
  102f1f:	41 51                	push   %r9
  102f21:	41 52                	push   %r10
  102f23:	41 53                	push   %r11
  102f25:	fc                   	cld    
  102f26:	ff 14 25 10 a2 10 00 	callq  *0x10a210
  102f2d:	b0 20                	mov    $0x20,%al
  102f2f:	e6 20                	out    %al,$0x20
  102f31:	41 5b                	pop    %r11
  102f33:	41 5a                	pop    %r10
  102f35:	41 59                	pop    %r9
  102f37:	41 58                	pop    %r8
  102f39:	5f                   	pop    %rdi
  102f3a:	5e                   	pop    %rsi
  102f3b:	5a                   	pop    %rdx
  102f3c:	59                   	pop    %rcx
  102f3d:	58                   	pop    %rax
  102f3e:	48 81 c4 82 00 00 00 	add    $0x82,%rsp
  102f45:	48 cf                	iretq  

0000000000102f47 <interrupt_shim_67>:
  102f47:	48 81 ec 82 00 00 00 	sub    $0x82,%rsp
  102f4e:	50                   	push   %rax
  102f4f:	51                   	push   %rcx
  102f50:	52                   	push   %rdx
  102f51:	56                   	push   %rsi
  102f52:	57                   	push   %rdi
  102f53:	41 50                	push   %r8
  102f55:	41 51                	push   %r9
  102f57:	41 52                	push   %r10
  102f59:	41 53                	push   %r11
  102f5b:	fc                   	cld    
  102f5c:	ff 14 25 18 a2 10 00 	callq  *0x10a218
  102f63:	b0 20                	mov    $0x20,%al
  102f65:	e6 20                	out    %al,$0x20
  102f67:	41 5b                	pop    %r11
  102f69:	41 5a                	pop    %r10
  102f6b:	41 59                	pop    %r9
  102f6d:	41 58                	pop    %r8
  102f6f:	5f                   	pop    %rdi
  102f70:	5e                   	pop    %rsi
  102f71:	5a                   	pop    %rdx
  102f72:	59                   	pop    %rcx
  102f73:	58                   	pop    %rax
  102f74:	48 81 c4 82 00 00 00 	add    $0x82,%rsp
  102f7b:	48 cf                	iretq  

0000000000102f7d <interrupt_shim_68>:
  102f7d:	48 81 ec 82 00 00 00 	sub    $0x82,%rsp
  102f84:	50                   	push   %rax
  102f85:	51                   	push   %rcx
  102f86:	52                   	push   %rdx
  102f87:	56                   	push   %rsi
  102f88:	57                   	push   %rdi
  102f89:	41 50                	push   %r8
  102f8b:	41 51                	push   %r9
  102f8d:	41 52                	push   %r10
  102f8f:	41 53                	push   %r11
  102f91:	fc                   	cld    
  102f92:	ff 14 25 20 a2 10 00 	callq  *0x10a220
  102f99:	b0 20                	mov    $0x20,%al
  102f9b:	e6 20                	out    %al,$0x20
  102f9d:	41 5b                	pop    %r11
  102f9f:	41 5a                	pop    %r10
  102fa1:	41 59                	pop    %r9
  102fa3:	41 58                	pop    %r8
  102fa5:	5f                   	pop    %rdi
  102fa6:	5e                   	pop    %rsi
  102fa7:	5a                   	pop    %rdx
  102fa8:	59                   	pop    %rcx
  102fa9:	58                   	pop    %rax
  102faa:	48 81 c4 82 00 00 00 	add    $0x82,%rsp
  102fb1:	48 cf                	iretq  

0000000000102fb3 <interrupt_shim_69>:
  102fb3:	48 81 ec 82 00 00 00 	sub    $0x82,%rsp
  102fba:	50                   	push   %rax
  102fbb:	51                   	push   %rcx
  102fbc:	52                   	push   %rdx
  102fbd:	56                   	push   %rsi
  102fbe:	57                   	push   %rdi
  102fbf:	41 50                	push   %r8
  102fc1:	41 51                	push   %r9
  102fc3:	41 52                	push   %r10
  102fc5:	41 53                	push   %r11
  102fc7:	fc                   	cld    
  102fc8:	ff 14 25 28 a2 10 00 	callq  *0x10a228
  102fcf:	b0 20                	mov    $0x20,%al
  102fd1:	e6 20                	out    %al,$0x20
  102fd3:	41 5b                	pop    %r11
  102fd5:	41 5a                	pop    %r10
  102fd7:	41 59                	pop    %r9
  102fd9:	41 58                	pop    %r8
  102fdb:	5f                   	pop    %rdi
  102fdc:	5e                   	pop    %rsi
  102fdd:	5a                   	pop    %rdx
  102fde:	59                   	pop    %rcx
  102fdf:	58                   	pop    %rax
  102fe0:	48 81 c4 82 00 00 00 	add    $0x82,%rsp
  102fe7:	48 cf                	iretq  

0000000000102fe9 <interrupt_shim_70>:
  102fe9:	48 81 ec 82 00 00 00 	sub    $0x82,%rsp
  102ff0:	50                   	push   %rax
  102ff1:	51                   	push   %rcx
  102ff2:	52                   	push   %rdx
  102ff3:	56                   	push   %rsi
  102ff4:	57                   	push   %rdi
  102ff5:	41 50                	push   %r8
  102ff7:	41 51                	push   %r9
  102ff9:	41 52                	push   %r10
  102ffb:	41 53                	push   %r11
  102ffd:	fc                   	cld    
  102ffe:	ff 14 25 30 a2 10 00 	callq  *0x10a230
  103005:	b0 20                	mov    $0x20,%al
  103007:	e6 20                	out    %al,$0x20
  103009:	41 5b                	pop    %r11
  10300b:	41 5a                	pop    %r10
  10300d:	41 59                	pop    %r9
  10300f:	41 58                	pop    %r8
  103011:	5f                   	pop    %rdi
  103012:	5e                   	pop    %rsi
  103013:	5a                   	pop    %rdx
  103014:	59                   	pop    %rcx
  103015:	58                   	pop    %rax
  103016:	48 81 c4 82 00 00 00 	add    $0x82,%rsp
  10301d:	48 cf                	iretq  

000000000010301f <interrupt_shim_71>:
  10301f:	48 81 ec 82 00 00 00 	sub    $0x82,%rsp
  103026:	50                   	push   %rax
  103027:	51                   	push   %rcx
  103028:	52                   	push   %rdx
  103029:	56                   	push   %rsi
  10302a:	57                   	push   %rdi
  10302b:	41 50                	push   %r8
  10302d:	41 51                	push   %r9
  10302f:	41 52                	push   %r10
  103031:	41 53                	push   %r11
  103033:	fc                   	cld    
  103034:	ff 14 25 38 a2 10 00 	callq  *0x10a238
  10303b:	b0 20                	mov    $0x20,%al
  10303d:	e6 20                	out    %al,$0x20
  10303f:	41 5b                	pop    %r11
  103041:	41 5a                	pop    %r10
  103043:	41 59                	pop    %r9
  103045:	41 58                	pop    %r8
  103047:	5f                   	pop    %rdi
  103048:	5e                   	pop    %rsi
  103049:	5a                   	pop    %rdx
  10304a:	59                   	pop    %rcx
  10304b:	58                   	pop    %rax
  10304c:	48 81 c4 82 00 00 00 	add    $0x82,%rsp
  103053:	48 cf                	iretq  

0000000000103055 <interrupt_shim_72>:
  103055:	48 81 ec 82 00 00 00 	sub    $0x82,%rsp
  10305c:	50                   	push   %rax
  10305d:	51                   	push   %rcx
  10305e:	52                   	push   %rdx
  10305f:	56                   	push   %rsi
  103060:	57                   	push   %rdi
  103061:	41 50                	push   %r8
  103063:	41 51                	push   %r9
  103065:	41 52                	push   %r10
  103067:	41 53                	push   %r11
  103069:	fc                   	cld    
  10306a:	ff 14 25 40 a2 10 00 	callq  *0x10a240
  103071:	b0 20                	mov    $0x20,%al
  103073:	e6 20                	out    %al,$0x20
  103075:	41 5b                	pop    %r11
  103077:	41 5a                	pop    %r10
  103079:	41 59                	pop    %r9
  10307b:	41 58                	pop    %r8
  10307d:	5f                   	pop    %rdi
  10307e:	5e                   	pop    %rsi
  10307f:	5a                   	pop    %rdx
  103080:	59                   	pop    %rcx
  103081:	58                   	pop    %rax
  103082:	48 81 c4 82 00 00 00 	add    $0x82,%rsp
  103089:	48 cf                	iretq  

000000000010308b <interrupt_shim_73>:
  10308b:	48 81 ec 82 00 00 00 	sub    $0x82,%rsp
  103092:	50                   	push   %rax
  103093:	51                   	push   %rcx
  103094:	52                   	push   %rdx
  103095:	56                   	push   %rsi
  103096:	57                   	push   %rdi
  103097:	41 50                	push   %r8
  103099:	41 51                	push   %r9
  10309b:	41 52                	push   %r10
  10309d:	41 53                	push   %r11
  10309f:	fc                   	cld    
  1030a0:	ff 14 25 48 a2 10 00 	callq  *0x10a248
  1030a7:	b0 20                	mov    $0x20,%al
  1030a9:	e6 20                	out    %al,$0x20
  1030ab:	41 5b                	pop    %r11
  1030ad:	41 5a                	pop    %r10
  1030af:	41 59                	pop    %r9
  1030b1:	41 58                	pop    %r8
  1030b3:	5f                   	pop    %rdi
  1030b4:	5e                   	pop    %rsi
  1030b5:	5a                   	pop    %rdx
  1030b6:	59                   	pop    %rcx
  1030b7:	58                   	pop    %rax
  1030b8:	48 81 c4 82 00 00 00 	add    $0x82,%rsp
  1030bf:	48 cf                	iretq  

00000000001030c1 <interrupt_shim_74>:
  1030c1:	48 81 ec 82 00 00 00 	sub    $0x82,%rsp
  1030c8:	50                   	push   %rax
  1030c9:	51                   	push   %rcx
  1030ca:	52                   	push   %rdx
  1030cb:	56                   	push   %rsi
  1030cc:	57                   	push   %rdi
  1030cd:	41 50                	push   %r8
  1030cf:	41 51                	push   %r9
  1030d1:	41 52                	push   %r10
  1030d3:	41 53                	push   %r11
  1030d5:	fc                   	cld    
  1030d6:	ff 14 25 50 a2 10 00 	callq  *0x10a250
  1030dd:	b0 20                	mov    $0x20,%al
  1030df:	e6 20                	out    %al,$0x20
  1030e1:	41 5b                	pop    %r11
  1030e3:	41 5a                	pop    %r10
  1030e5:	41 59                	pop    %r9
  1030e7:	41 58                	pop    %r8
  1030e9:	5f                   	pop    %rdi
  1030ea:	5e                   	pop    %rsi
  1030eb:	5a                   	pop    %rdx
  1030ec:	59                   	pop    %rcx
  1030ed:	58                   	pop    %rax
  1030ee:	48 81 c4 82 00 00 00 	add    $0x82,%rsp
  1030f5:	48 cf                	iretq  

00000000001030f7 <interrupt_shim_75>:
  1030f7:	48 81 ec 82 00 00 00 	sub    $0x82,%rsp
  1030fe:	50                   	push   %rax
  1030ff:	51                   	push   %rcx
  103100:	52                   	push   %rdx
  103101:	56                   	push   %rsi
  103102:	57                   	push   %rdi
  103103:	41 50                	push   %r8
  103105:	41 51                	push   %r9
  103107:	41 52                	push   %r10
  103109:	41 53                	push   %r11
  10310b:	fc                   	cld    
  10310c:	ff 14 25 58 a2 10 00 	callq  *0x10a258
  103113:	b0 20                	mov    $0x20,%al
  103115:	e6 20                	out    %al,$0x20
  103117:	41 5b                	pop    %r11
  103119:	41 5a                	pop    %r10
  10311b:	41 59                	pop    %r9
  10311d:	41 58                	pop    %r8
  10311f:	5f                   	pop    %rdi
  103120:	5e                   	pop    %rsi
  103121:	5a                   	pop    %rdx
  103122:	59                   	pop    %rcx
  103123:	58                   	pop    %rax
  103124:	48 81 c4 82 00 00 00 	add    $0x82,%rsp
  10312b:	48 cf                	iretq  

000000000010312d <interrupt_shim_76>:
  10312d:	48 81 ec 82 00 00 00 	sub    $0x82,%rsp
  103134:	50                   	push   %rax
  103135:	51                   	push   %rcx
  103136:	52                   	push   %rdx
  103137:	56                   	push   %rsi
  103138:	57                   	push   %rdi
  103139:	41 50                	push   %r8
  10313b:	41 51                	push   %r9
  10313d:	41 52                	push   %r10
  10313f:	41 53                	push   %r11
  103141:	fc                   	cld    
  103142:	ff 14 25 60 a2 10 00 	callq  *0x10a260
  103149:	b0 20                	mov    $0x20,%al
  10314b:	e6 20                	out    %al,$0x20
  10314d:	41 5b                	pop    %r11
  10314f:	41 5a                	pop    %r10
  103151:	41 59                	pop    %r9
  103153:	41 58                	pop    %r8
  103155:	5f                   	pop    %rdi
  103156:	5e                   	pop    %rsi
  103157:	5a                   	pop    %rdx
  103158:	59                   	pop    %rcx
  103159:	58                   	pop    %rax
  10315a:	48 81 c4 82 00 00 00 	add    $0x82,%rsp
  103161:	48 cf                	iretq  

0000000000103163 <interrupt_shim_77>:
  103163:	48 81 ec 82 00 00 00 	sub    $0x82,%rsp
  10316a:	50                   	push   %rax
  10316b:	51                   	push   %rcx
  10316c:	52                   	push   %rdx
  10316d:	56                   	push   %rsi
  10316e:	57                   	push   %rdi
  10316f:	41 50                	push   %r8
  103171:	41 51                	push   %r9
  103173:	41 52                	push   %r10
  103175:	41 53                	push   %r11
  103177:	fc                   	cld    
  103178:	ff 14 25 68 a2 10 00 	callq  *0x10a268
  10317f:	b0 20                	mov    $0x20,%al
  103181:	e6 20                	out    %al,$0x20
  103183:	41 5b                	pop    %r11
  103185:	41 5a                	pop    %r10
  103187:	41 59                	pop    %r9
  103189:	41 58                	pop    %r8
  10318b:	5f                   	pop    %rdi
  10318c:	5e                   	pop    %rsi
  10318d:	5a                   	pop    %rdx
  10318e:	59                   	pop    %rcx
  10318f:	58                   	pop    %rax
  103190:	48 81 c4 82 00 00 00 	add    $0x82,%rsp
  103197:	48 cf                	iretq  

0000000000103199 <interrupt_shim_78>:
  103199:	48 81 ec 82 00 00 00 	sub    $0x82,%rsp
  1031a0:	50                   	push   %rax
  1031a1:	51                   	push   %rcx
  1031a2:	52                   	push   %rdx
  1031a3:	56                   	push   %rsi
  1031a4:	57                   	push   %rdi
  1031a5:	41 50                	push   %r8
  1031a7:	41 51                	push   %r9
  1031a9:	41 52                	push   %r10
  1031ab:	41 53                	push   %r11
  1031ad:	fc                   	cld    
  1031ae:	ff 14 25 70 a2 10 00 	callq  *0x10a270
  1031b5:	b0 20                	mov    $0x20,%al
  1031b7:	e6 20                	out    %al,$0x20
  1031b9:	41 5b                	pop    %r11
  1031bb:	41 5a                	pop    %r10
  1031bd:	41 59                	pop    %r9
  1031bf:	41 58                	pop    %r8
  1031c1:	5f                   	pop    %rdi
  1031c2:	5e                   	pop    %rsi
  1031c3:	5a                   	pop    %rdx
  1031c4:	59                   	pop    %rcx
  1031c5:	58                   	pop    %rax
  1031c6:	48 81 c4 82 00 00 00 	add    $0x82,%rsp
  1031cd:	48 cf                	iretq  

00000000001031cf <interrupt_shim_79>:
  1031cf:	48 81 ec 82 00 00 00 	sub    $0x82,%rsp
  1031d6:	50                   	push   %rax
  1031d7:	51                   	push   %rcx
  1031d8:	52                   	push   %rdx
  1031d9:	56                   	push   %rsi
  1031da:	57                   	push   %rdi
  1031db:	41 50                	push   %r8
  1031dd:	41 51                	push   %r9
  1031df:	41 52                	push   %r10
  1031e1:	41 53                	push   %r11
  1031e3:	fc                   	cld    
  1031e4:	ff 14 25 78 a2 10 00 	callq  *0x10a278
  1031eb:	b0 20                	mov    $0x20,%al
  1031ed:	e6 20                	out    %al,$0x20
  1031ef:	41 5b                	pop    %r11
  1031f1:	41 5a                	pop    %r10
  1031f3:	41 59                	pop    %r9
  1031f5:	41 58                	pop    %r8
  1031f7:	5f                   	pop    %rdi
  1031f8:	5e                   	pop    %rsi
  1031f9:	5a                   	pop    %rdx
  1031fa:	59                   	pop    %rcx
  1031fb:	58                   	pop    %rax
  1031fc:	48 81 c4 82 00 00 00 	add    $0x82,%rsp
  103203:	48 cf                	iretq  

0000000000103205 <interrupt_shim_80>:
  103205:	48 81 ec 82 00 00 00 	sub    $0x82,%rsp
  10320c:	50                   	push   %rax
  10320d:	51                   	push   %rcx
  10320e:	52                   	push   %rdx
  10320f:	56                   	push   %rsi
  103210:	57                   	push   %rdi
  103211:	41 50                	push   %r8
  103213:	41 51                	push   %r9
  103215:	41 52                	push   %r10
  103217:	41 53                	push   %r11
  103219:	fc                   	cld    
  10321a:	ff 14 25 80 a2 10 00 	callq  *0x10a280
  103221:	b0 20                	mov    $0x20,%al
  103223:	e6 20                	out    %al,$0x20
  103225:	41 5b                	pop    %r11
  103227:	41 5a                	pop    %r10
  103229:	41 59                	pop    %r9
  10322b:	41 58                	pop    %r8
  10322d:	5f                   	pop    %rdi
  10322e:	5e                   	pop    %rsi
  10322f:	5a                   	pop    %rdx
  103230:	59                   	pop    %rcx
  103231:	58                   	pop    %rax
  103232:	48 81 c4 82 00 00 00 	add    $0x82,%rsp
  103239:	48 cf                	iretq  

000000000010323b <interrupt_shim_81>:
  10323b:	48 81 ec 82 00 00 00 	sub    $0x82,%rsp
  103242:	50                   	push   %rax
  103243:	51                   	push   %rcx
  103244:	52                   	push   %rdx
  103245:	56                   	push   %rsi
  103246:	57                   	push   %rdi
  103247:	41 50                	push   %r8
  103249:	41 51                	push   %r9
  10324b:	41 52                	push   %r10
  10324d:	41 53                	push   %r11
  10324f:	fc                   	cld    
  103250:	ff 14 25 88 a2 10 00 	callq  *0x10a288
  103257:	b0 20                	mov    $0x20,%al
  103259:	e6 20                	out    %al,$0x20
  10325b:	41 5b                	pop    %r11
  10325d:	41 5a                	pop    %r10
  10325f:	41 59                	pop    %r9
  103261:	41 58                	pop    %r8
  103263:	5f                   	pop    %rdi
  103264:	5e                   	pop    %rsi
  103265:	5a                   	pop    %rdx
  103266:	59                   	pop    %rcx
  103267:	58                   	pop    %rax
  103268:	48 81 c4 82 00 00 00 	add    $0x82,%rsp
  10326f:	48 cf                	iretq  

0000000000103271 <interrupt_shim_82>:
  103271:	48 81 ec 82 00 00 00 	sub    $0x82,%rsp
  103278:	50                   	push   %rax
  103279:	51                   	push   %rcx
  10327a:	52                   	push   %rdx
  10327b:	56                   	push   %rsi
  10327c:	57                   	push   %rdi
  10327d:	41 50                	push   %r8
  10327f:	41 51                	push   %r9
  103281:	41 52                	push   %r10
  103283:	41 53                	push   %r11
  103285:	fc                   	cld    
  103286:	ff 14 25 90 a2 10 00 	callq  *0x10a290
  10328d:	b0 20                	mov    $0x20,%al
  10328f:	e6 20                	out    %al,$0x20
  103291:	41 5b                	pop    %r11
  103293:	41 5a                	pop    %r10
  103295:	41 59                	pop    %r9
  103297:	41 58                	pop    %r8
  103299:	5f                   	pop    %rdi
  10329a:	5e                   	pop    %rsi
  10329b:	5a                   	pop    %rdx
  10329c:	59                   	pop    %rcx
  10329d:	58                   	pop    %rax
  10329e:	48 81 c4 82 00 00 00 	add    $0x82,%rsp
  1032a5:	48 cf                	iretq  

00000000001032a7 <interrupt_shim_83>:
  1032a7:	48 81 ec 82 00 00 00 	sub    $0x82,%rsp
  1032ae:	50                   	push   %rax
  1032af:	51                   	push   %rcx
  1032b0:	52                   	push   %rdx
  1032b1:	56                   	push   %rsi
  1032b2:	57                   	push   %rdi
  1032b3:	41 50                	push   %r8
  1032b5:	41 51                	push   %r9
  1032b7:	41 52                	push   %r10
  1032b9:	41 53                	push   %r11
  1032bb:	fc                   	cld    
  1032bc:	ff 14 25 98 a2 10 00 	callq  *0x10a298
  1032c3:	b0 20                	mov    $0x20,%al
  1032c5:	e6 20                	out    %al,$0x20
  1032c7:	41 5b                	pop    %r11
  1032c9:	41 5a                	pop    %r10
  1032cb:	41 59                	pop    %r9
  1032cd:	41 58                	pop    %r8
  1032cf:	5f                   	pop    %rdi
  1032d0:	5e                   	pop    %rsi
  1032d1:	5a                   	pop    %rdx
  1032d2:	59                   	pop    %rcx
  1032d3:	58                   	pop    %rax
  1032d4:	48 81 c4 82 00 00 00 	add    $0x82,%rsp
  1032db:	48 cf                	iretq  

00000000001032dd <interrupt_shim_84>:
  1032dd:	48 81 ec 82 00 00 00 	sub    $0x82,%rsp
  1032e4:	50                   	push   %rax
  1032e5:	51                   	push   %rcx
  1032e6:	52                   	push   %rdx
  1032e7:	56                   	push   %rsi
  1032e8:	57                   	push   %rdi
  1032e9:	41 50                	push   %r8
  1032eb:	41 51                	push   %r9
  1032ed:	41 52                	push   %r10
  1032ef:	41 53                	push   %r11
  1032f1:	fc                   	cld    
  1032f2:	ff 14 25 a0 a2 10 00 	callq  *0x10a2a0
  1032f9:	b0 20                	mov    $0x20,%al
  1032fb:	e6 20                	out    %al,$0x20
  1032fd:	41 5b                	pop    %r11
  1032ff:	41 5a                	pop    %r10
  103301:	41 59                	pop    %r9
  103303:	41 58                	pop    %r8
  103305:	5f                   	pop    %rdi
  103306:	5e                   	pop    %rsi
  103307:	5a                   	pop    %rdx
  103308:	59                   	pop    %rcx
  103309:	58                   	pop    %rax
  10330a:	48 81 c4 82 00 00 00 	add    $0x82,%rsp
  103311:	48 cf                	iretq  

0000000000103313 <interrupt_shim_85>:
  103313:	48 81 ec 82 00 00 00 	sub    $0x82,%rsp
  10331a:	50                   	push   %rax
  10331b:	51                   	push   %rcx
  10331c:	52                   	push   %rdx
  10331d:	56                   	push   %rsi
  10331e:	57                   	push   %rdi
  10331f:	41 50                	push   %r8
  103321:	41 51                	push   %r9
  103323:	41 52                	push   %r10
  103325:	41 53                	push   %r11
  103327:	fc                   	cld    
  103328:	ff 14 25 a8 a2 10 00 	callq  *0x10a2a8
  10332f:	b0 20                	mov    $0x20,%al
  103331:	e6 20                	out    %al,$0x20
  103333:	41 5b                	pop    %r11
  103335:	41 5a                	pop    %r10
  103337:	41 59                	pop    %r9
  103339:	41 58                	pop    %r8
  10333b:	5f                   	pop    %rdi
  10333c:	5e                   	pop    %rsi
  10333d:	5a                   	pop    %rdx
  10333e:	59                   	pop    %rcx
  10333f:	58                   	pop    %rax
  103340:	48 81 c4 82 00 00 00 	add    $0x82,%rsp
  103347:	48 cf                	iretq  

0000000000103349 <interrupt_shim_86>:
  103349:	48 81 ec 82 00 00 00 	sub    $0x82,%rsp
  103350:	50                   	push   %rax
  103351:	51                   	push   %rcx
  103352:	52                   	push   %rdx
  103353:	56                   	push   %rsi
  103354:	57                   	push   %rdi
  103355:	41 50                	push   %r8
  103357:	41 51                	push   %r9
  103359:	41 52                	push   %r10
  10335b:	41 53                	push   %r11
  10335d:	fc                   	cld    
  10335e:	ff 14 25 b0 a2 10 00 	callq  *0x10a2b0
  103365:	b0 20                	mov    $0x20,%al
  103367:	e6 20                	out    %al,$0x20
  103369:	41 5b                	pop    %r11
  10336b:	41 5a                	pop    %r10
  10336d:	41 59                	pop    %r9
  10336f:	41 58                	pop    %r8
  103371:	5f                   	pop    %rdi
  103372:	5e                   	pop    %rsi
  103373:	5a                   	pop    %rdx
  103374:	59                   	pop    %rcx
  103375:	58                   	pop    %rax
  103376:	48 81 c4 82 00 00 00 	add    $0x82,%rsp
  10337d:	48 cf                	iretq  

000000000010337f <interrupt_shim_87>:
  10337f:	48 81 ec 82 00 00 00 	sub    $0x82,%rsp
  103386:	50                   	push   %rax
  103387:	51                   	push   %rcx
  103388:	52                   	push   %rdx
  103389:	56                   	push   %rsi
  10338a:	57                   	push   %rdi
  10338b:	41 50                	push   %r8
  10338d:	41 51                	push   %r9
  10338f:	41 52                	push   %r10
  103391:	41 53                	push   %r11
  103393:	fc                   	cld    
  103394:	ff 14 25 b8 a2 10 00 	callq  *0x10a2b8
  10339b:	b0 20                	mov    $0x20,%al
  10339d:	e6 20                	out    %al,$0x20
  10339f:	41 5b                	pop    %r11
  1033a1:	41 5a                	pop    %r10
  1033a3:	41 59                	pop    %r9
  1033a5:	41 58                	pop    %r8
  1033a7:	5f                   	pop    %rdi
  1033a8:	5e                   	pop    %rsi
  1033a9:	5a                   	pop    %rdx
  1033aa:	59                   	pop    %rcx
  1033ab:	58                   	pop    %rax
  1033ac:	48 81 c4 82 00 00 00 	add    $0x82,%rsp
  1033b3:	48 cf                	iretq  

00000000001033b5 <interrupt_shim_88>:
  1033b5:	48 81 ec 82 00 00 00 	sub    $0x82,%rsp
  1033bc:	50                   	push   %rax
  1033bd:	51                   	push   %rcx
  1033be:	52                   	push   %rdx
  1033bf:	56                   	push   %rsi
  1033c0:	57                   	push   %rdi
  1033c1:	41 50                	push   %r8
  1033c3:	41 51                	push   %r9
  1033c5:	41 52                	push   %r10
  1033c7:	41 53                	push   %r11
  1033c9:	fc                   	cld    
  1033ca:	ff 14 25 c0 a2 10 00 	callq  *0x10a2c0
  1033d1:	b0 20                	mov    $0x20,%al
  1033d3:	e6 20                	out    %al,$0x20
  1033d5:	41 5b                	pop    %r11
  1033d7:	41 5a                	pop    %r10
  1033d9:	41 59                	pop    %r9
  1033db:	41 58                	pop    %r8
  1033dd:	5f                   	pop    %rdi
  1033de:	5e                   	pop    %rsi
  1033df:	5a                   	pop    %rdx
  1033e0:	59                   	pop    %rcx
  1033e1:	58                   	pop    %rax
  1033e2:	48 81 c4 82 00 00 00 	add    $0x82,%rsp
  1033e9:	48 cf                	iretq  

00000000001033eb <interrupt_shim_89>:
  1033eb:	48 81 ec 82 00 00 00 	sub    $0x82,%rsp
  1033f2:	50                   	push   %rax
  1033f3:	51                   	push   %rcx
  1033f4:	52                   	push   %rdx
  1033f5:	56                   	push   %rsi
  1033f6:	57                   	push   %rdi
  1033f7:	41 50                	push   %r8
  1033f9:	41 51                	push   %r9
  1033fb:	41 52                	push   %r10
  1033fd:	41 53                	push   %r11
  1033ff:	fc                   	cld    
  103400:	ff 14 25 c8 a2 10 00 	callq  *0x10a2c8
  103407:	b0 20                	mov    $0x20,%al
  103409:	e6 20                	out    %al,$0x20
  10340b:	41 5b                	pop    %r11
  10340d:	41 5a                	pop    %r10
  10340f:	41 59                	pop    %r9
  103411:	41 58                	pop    %r8
  103413:	5f                   	pop    %rdi
  103414:	5e                   	pop    %rsi
  103415:	5a                   	pop    %rdx
  103416:	59                   	pop    %rcx
  103417:	58                   	pop    %rax
  103418:	48 81 c4 82 00 00 00 	add    $0x82,%rsp
  10341f:	48 cf                	iretq  

0000000000103421 <interrupt_shim_90>:
  103421:	48 81 ec 82 00 00 00 	sub    $0x82,%rsp
  103428:	50                   	push   %rax
  103429:	51                   	push   %rcx
  10342a:	52                   	push   %rdx
  10342b:	56                   	push   %rsi
  10342c:	57                   	push   %rdi
  10342d:	41 50                	push   %r8
  10342f:	41 51                	push   %r9
  103431:	41 52                	push   %r10
  103433:	41 53                	push   %r11
  103435:	fc                   	cld    
  103436:	ff 14 25 d0 a2 10 00 	callq  *0x10a2d0
  10343d:	b0 20                	mov    $0x20,%al
  10343f:	e6 20                	out    %al,$0x20
  103441:	41 5b                	pop    %r11
  103443:	41 5a                	pop    %r10
  103445:	41 59                	pop    %r9
  103447:	41 58                	pop    %r8
  103449:	5f                   	pop    %rdi
  10344a:	5e                   	pop    %rsi
  10344b:	5a                   	pop    %rdx
  10344c:	59                   	pop    %rcx
  10344d:	58                   	pop    %rax
  10344e:	48 81 c4 82 00 00 00 	add    $0x82,%rsp
  103455:	48 cf                	iretq  

0000000000103457 <interrupt_shim_91>:
  103457:	48 81 ec 82 00 00 00 	sub    $0x82,%rsp
  10345e:	50                   	push   %rax
  10345f:	51                   	push   %rcx
  103460:	52                   	push   %rdx
  103461:	56                   	push   %rsi
  103462:	57                   	push   %rdi
  103463:	41 50                	push   %r8
  103465:	41 51                	push   %r9
  103467:	41 52                	push   %r10
  103469:	41 53                	push   %r11
  10346b:	fc                   	cld    
  10346c:	ff 14 25 d8 a2 10 00 	callq  *0x10a2d8
  103473:	b0 20                	mov    $0x20,%al
  103475:	e6 20                	out    %al,$0x20
  103477:	41 5b                	pop    %r11
  103479:	41 5a                	pop    %r10
  10347b:	41 59                	pop    %r9
  10347d:	41 58                	pop    %r8
  10347f:	5f                   	pop    %rdi
  103480:	5e                   	pop    %rsi
  103481:	5a                   	pop    %rdx
  103482:	59                   	pop    %rcx
  103483:	58                   	pop    %rax
  103484:	48 81 c4 82 00 00 00 	add    $0x82,%rsp
  10348b:	48 cf                	iretq  

000000000010348d <interrupt_shim_92>:
  10348d:	48 81 ec 82 00 00 00 	sub    $0x82,%rsp
  103494:	50                   	push   %rax
  103495:	51                   	push   %rcx
  103496:	52                   	push   %rdx
  103497:	56                   	push   %rsi
  103498:	57                   	push   %rdi
  103499:	41 50                	push   %r8
  10349b:	41 51                	push   %r9
  10349d:	41 52                	push   %r10
  10349f:	41 53                	push   %r11
  1034a1:	fc                   	cld    
  1034a2:	ff 14 25 e0 a2 10 00 	callq  *0x10a2e0
  1034a9:	b0 20                	mov    $0x20,%al
  1034ab:	e6 20                	out    %al,$0x20
  1034ad:	41 5b                	pop    %r11
  1034af:	41 5a                	pop    %r10
  1034b1:	41 59                	pop    %r9
  1034b3:	41 58                	pop    %r8
  1034b5:	5f                   	pop    %rdi
  1034b6:	5e                   	pop    %rsi
  1034b7:	5a                   	pop    %rdx
  1034b8:	59                   	pop    %rcx
  1034b9:	58                   	pop    %rax
  1034ba:	48 81 c4 82 00 00 00 	add    $0x82,%rsp
  1034c1:	48 cf                	iretq  

00000000001034c3 <interrupt_shim_93>:
  1034c3:	48 81 ec 82 00 00 00 	sub    $0x82,%rsp
  1034ca:	50                   	push   %rax
  1034cb:	51                   	push   %rcx
  1034cc:	52                   	push   %rdx
  1034cd:	56                   	push   %rsi
  1034ce:	57                   	push   %rdi
  1034cf:	41 50                	push   %r8
  1034d1:	41 51                	push   %r9
  1034d3:	41 52                	push   %r10
  1034d5:	41 53                	push   %r11
  1034d7:	fc                   	cld    
  1034d8:	ff 14 25 e8 a2 10 00 	callq  *0x10a2e8
  1034df:	b0 20                	mov    $0x20,%al
  1034e1:	e6 20                	out    %al,$0x20
  1034e3:	41 5b                	pop    %r11
  1034e5:	41 5a                	pop    %r10
  1034e7:	41 59                	pop    %r9
  1034e9:	41 58                	pop    %r8
  1034eb:	5f                   	pop    %rdi
  1034ec:	5e                   	pop    %rsi
  1034ed:	5a                   	pop    %rdx
  1034ee:	59                   	pop    %rcx
  1034ef:	58                   	pop    %rax
  1034f0:	48 81 c4 82 00 00 00 	add    $0x82,%rsp
  1034f7:	48 cf                	iretq  

00000000001034f9 <interrupt_shim_94>:
  1034f9:	48 81 ec 82 00 00 00 	sub    $0x82,%rsp
  103500:	50                   	push   %rax
  103501:	51                   	push   %rcx
  103502:	52                   	push   %rdx
  103503:	56                   	push   %rsi
  103504:	57                   	push   %rdi
  103505:	41 50                	push   %r8
  103507:	41 51                	push   %r9
  103509:	41 52                	push   %r10
  10350b:	41 53                	push   %r11
  10350d:	fc                   	cld    
  10350e:	ff 14 25 f0 a2 10 00 	callq  *0x10a2f0
  103515:	b0 20                	mov    $0x20,%al
  103517:	e6 20                	out    %al,$0x20
  103519:	41 5b                	pop    %r11
  10351b:	41 5a                	pop    %r10
  10351d:	41 59                	pop    %r9
  10351f:	41 58                	pop    %r8
  103521:	5f                   	pop    %rdi
  103522:	5e                   	pop    %rsi
  103523:	5a                   	pop    %rdx
  103524:	59                   	pop    %rcx
  103525:	58                   	pop    %rax
  103526:	48 81 c4 82 00 00 00 	add    $0x82,%rsp
  10352d:	48 cf                	iretq  

000000000010352f <interrupt_shim_95>:
  10352f:	48 81 ec 82 00 00 00 	sub    $0x82,%rsp
  103536:	50                   	push   %rax
  103537:	51                   	push   %rcx
  103538:	52                   	push   %rdx
  103539:	56                   	push   %rsi
  10353a:	57                   	push   %rdi
  10353b:	41 50                	push   %r8
  10353d:	41 51                	push   %r9
  10353f:	41 52                	push   %r10
  103541:	41 53                	push   %r11
  103543:	fc                   	cld    
  103544:	ff 14 25 f8 a2 10 00 	callq  *0x10a2f8
  10354b:	b0 20                	mov    $0x20,%al
  10354d:	e6 20                	out    %al,$0x20
  10354f:	41 5b                	pop    %r11
  103551:	41 5a                	pop    %r10
  103553:	41 59                	pop    %r9
  103555:	41 58                	pop    %r8
  103557:	5f                   	pop    %rdi
  103558:	5e                   	pop    %rsi
  103559:	5a                   	pop    %rdx
  10355a:	59                   	pop    %rcx
  10355b:	58                   	pop    %rax
  10355c:	48 81 c4 82 00 00 00 	add    $0x82,%rsp
  103563:	48 cf                	iretq  

0000000000103565 <interrupt_shim_96>:
  103565:	48 81 ec 82 00 00 00 	sub    $0x82,%rsp
  10356c:	50                   	push   %rax
  10356d:	51                   	push   %rcx
  10356e:	52                   	push   %rdx
  10356f:	56                   	push   %rsi
  103570:	57                   	push   %rdi
  103571:	41 50                	push   %r8
  103573:	41 51                	push   %r9
  103575:	41 52                	push   %r10
  103577:	41 53                	push   %r11
  103579:	fc                   	cld    
  10357a:	ff 14 25 00 a3 10 00 	callq  *0x10a300
  103581:	b0 20                	mov    $0x20,%al
  103583:	e6 20                	out    %al,$0x20
  103585:	41 5b                	pop    %r11
  103587:	41 5a                	pop    %r10
  103589:	41 59                	pop    %r9
  10358b:	41 58                	pop    %r8
  10358d:	5f                   	pop    %rdi
  10358e:	5e                   	pop    %rsi
  10358f:	5a                   	pop    %rdx
  103590:	59                   	pop    %rcx
  103591:	58                   	pop    %rax
  103592:	48 81 c4 82 00 00 00 	add    $0x82,%rsp
  103599:	48 cf                	iretq  

000000000010359b <interrupt_shim_97>:
  10359b:	48 81 ec 82 00 00 00 	sub    $0x82,%rsp
  1035a2:	50                   	push   %rax
  1035a3:	51                   	push   %rcx
  1035a4:	52                   	push   %rdx
  1035a5:	56                   	push   %rsi
  1035a6:	57                   	push   %rdi
  1035a7:	41 50                	push   %r8
  1035a9:	41 51                	push   %r9
  1035ab:	41 52                	push   %r10
  1035ad:	41 53                	push   %r11
  1035af:	fc                   	cld    
  1035b0:	ff 14 25 08 a3 10 00 	callq  *0x10a308
  1035b7:	b0 20                	mov    $0x20,%al
  1035b9:	e6 20                	out    %al,$0x20
  1035bb:	41 5b                	pop    %r11
  1035bd:	41 5a                	pop    %r10
  1035bf:	41 59                	pop    %r9
  1035c1:	41 58                	pop    %r8
  1035c3:	5f                   	pop    %rdi
  1035c4:	5e                   	pop    %rsi
  1035c5:	5a                   	pop    %rdx
  1035c6:	59                   	pop    %rcx
  1035c7:	58                   	pop    %rax
  1035c8:	48 81 c4 82 00 00 00 	add    $0x82,%rsp
  1035cf:	48 cf                	iretq  

00000000001035d1 <interrupt_shim_98>:
  1035d1:	48 81 ec 82 00 00 00 	sub    $0x82,%rsp
  1035d8:	50                   	push   %rax
  1035d9:	51                   	push   %rcx
  1035da:	52                   	push   %rdx
  1035db:	56                   	push   %rsi
  1035dc:	57                   	push   %rdi
  1035dd:	41 50                	push   %r8
  1035df:	41 51                	push   %r9
  1035e1:	41 52                	push   %r10
  1035e3:	41 53                	push   %r11
  1035e5:	fc                   	cld    
  1035e6:	ff 14 25 10 a3 10 00 	callq  *0x10a310
  1035ed:	b0 20                	mov    $0x20,%al
  1035ef:	e6 20                	out    %al,$0x20
  1035f1:	41 5b                	pop    %r11
  1035f3:	41 5a                	pop    %r10
  1035f5:	41 59                	pop    %r9
  1035f7:	41 58                	pop    %r8
  1035f9:	5f                   	pop    %rdi
  1035fa:	5e                   	pop    %rsi
  1035fb:	5a                   	pop    %rdx
  1035fc:	59                   	pop    %rcx
  1035fd:	58                   	pop    %rax
  1035fe:	48 81 c4 82 00 00 00 	add    $0x82,%rsp
  103605:	48 cf                	iretq  

0000000000103607 <interrupt_shim_99>:
  103607:	48 81 ec 82 00 00 00 	sub    $0x82,%rsp
  10360e:	50                   	push   %rax
  10360f:	51                   	push   %rcx
  103610:	52                   	push   %rdx
  103611:	56                   	push   %rsi
  103612:	57                   	push   %rdi
  103613:	41 50                	push   %r8
  103615:	41 51                	push   %r9
  103617:	41 52                	push   %r10
  103619:	41 53                	push   %r11
  10361b:	fc                   	cld    
  10361c:	ff 14 25 18 a3 10 00 	callq  *0x10a318
  103623:	b0 20                	mov    $0x20,%al
  103625:	e6 20                	out    %al,$0x20
  103627:	41 5b                	pop    %r11
  103629:	41 5a                	pop    %r10
  10362b:	41 59                	pop    %r9
  10362d:	41 58                	pop    %r8
  10362f:	5f                   	pop    %rdi
  103630:	5e                   	pop    %rsi
  103631:	5a                   	pop    %rdx
  103632:	59                   	pop    %rcx
  103633:	58                   	pop    %rax
  103634:	48 81 c4 82 00 00 00 	add    $0x82,%rsp
  10363b:	48 cf                	iretq  

000000000010363d <interrupt_shim_100>:
  10363d:	48 81 ec 82 00 00 00 	sub    $0x82,%rsp
  103644:	50                   	push   %rax
  103645:	51                   	push   %rcx
  103646:	52                   	push   %rdx
  103647:	56                   	push   %rsi
  103648:	57                   	push   %rdi
  103649:	41 50                	push   %r8
  10364b:	41 51                	push   %r9
  10364d:	41 52                	push   %r10
  10364f:	41 53                	push   %r11
  103651:	fc                   	cld    
  103652:	ff 14 25 20 a3 10 00 	callq  *0x10a320
  103659:	b0 20                	mov    $0x20,%al
  10365b:	e6 20                	out    %al,$0x20
  10365d:	41 5b                	pop    %r11
  10365f:	41 5a                	pop    %r10
  103661:	41 59                	pop    %r9
  103663:	41 58                	pop    %r8
  103665:	5f                   	pop    %rdi
  103666:	5e                   	pop    %rsi
  103667:	5a                   	pop    %rdx
  103668:	59                   	pop    %rcx
  103669:	58                   	pop    %rax
  10366a:	48 81 c4 82 00 00 00 	add    $0x82,%rsp
  103671:	48 cf                	iretq  

0000000000103673 <interrupt_shim_101>:
  103673:	48 81 ec 82 00 00 00 	sub    $0x82,%rsp
  10367a:	50                   	push   %rax
  10367b:	51                   	push   %rcx
  10367c:	52                   	push   %rdx
  10367d:	56                   	push   %rsi
  10367e:	57                   	push   %rdi
  10367f:	41 50                	push   %r8
  103681:	41 51                	push   %r9
  103683:	41 52                	push   %r10
  103685:	41 53                	push   %r11
  103687:	fc                   	cld    
  103688:	ff 14 25 28 a3 10 00 	callq  *0x10a328
  10368f:	b0 20                	mov    $0x20,%al
  103691:	e6 20                	out    %al,$0x20
  103693:	41 5b                	pop    %r11
  103695:	41 5a                	pop    %r10
  103697:	41 59                	pop    %r9
  103699:	41 58                	pop    %r8
  10369b:	5f                   	pop    %rdi
  10369c:	5e                   	pop    %rsi
  10369d:	5a                   	pop    %rdx
  10369e:	59                   	pop    %rcx
  10369f:	58                   	pop    %rax
  1036a0:	48 81 c4 82 00 00 00 	add    $0x82,%rsp
  1036a7:	48 cf                	iretq  

00000000001036a9 <interrupt_shim_102>:
  1036a9:	48 81 ec 82 00 00 00 	sub    $0x82,%rsp
  1036b0:	50                   	push   %rax
  1036b1:	51                   	push   %rcx
  1036b2:	52                   	push   %rdx
  1036b3:	56                   	push   %rsi
  1036b4:	57                   	push   %rdi
  1036b5:	41 50                	push   %r8
  1036b7:	41 51                	push   %r9
  1036b9:	41 52                	push   %r10
  1036bb:	41 53                	push   %r11
  1036bd:	fc                   	cld    
  1036be:	ff 14 25 30 a3 10 00 	callq  *0x10a330
  1036c5:	b0 20                	mov    $0x20,%al
  1036c7:	e6 20                	out    %al,$0x20
  1036c9:	41 5b                	pop    %r11
  1036cb:	41 5a                	pop    %r10
  1036cd:	41 59                	pop    %r9
  1036cf:	41 58                	pop    %r8
  1036d1:	5f                   	pop    %rdi
  1036d2:	5e                   	pop    %rsi
  1036d3:	5a                   	pop    %rdx
  1036d4:	59                   	pop    %rcx
  1036d5:	58                   	pop    %rax
  1036d6:	48 81 c4 82 00 00 00 	add    $0x82,%rsp
  1036dd:	48 cf                	iretq  

00000000001036df <interrupt_shim_103>:
  1036df:	48 81 ec 82 00 00 00 	sub    $0x82,%rsp
  1036e6:	50                   	push   %rax
  1036e7:	51                   	push   %rcx
  1036e8:	52                   	push   %rdx
  1036e9:	56                   	push   %rsi
  1036ea:	57                   	push   %rdi
  1036eb:	41 50                	push   %r8
  1036ed:	41 51                	push   %r9
  1036ef:	41 52                	push   %r10
  1036f1:	41 53                	push   %r11
  1036f3:	fc                   	cld    
  1036f4:	ff 14 25 38 a3 10 00 	callq  *0x10a338
  1036fb:	b0 20                	mov    $0x20,%al
  1036fd:	e6 20                	out    %al,$0x20
  1036ff:	41 5b                	pop    %r11
  103701:	41 5a                	pop    %r10
  103703:	41 59                	pop    %r9
  103705:	41 58                	pop    %r8
  103707:	5f                   	pop    %rdi
  103708:	5e                   	pop    %rsi
  103709:	5a                   	pop    %rdx
  10370a:	59                   	pop    %rcx
  10370b:	58                   	pop    %rax
  10370c:	48 81 c4 82 00 00 00 	add    $0x82,%rsp
  103713:	48 cf                	iretq  

0000000000103715 <interrupt_shim_104>:
  103715:	48 81 ec 82 00 00 00 	sub    $0x82,%rsp
  10371c:	50                   	push   %rax
  10371d:	51                   	push   %rcx
  10371e:	52                   	push   %rdx
  10371f:	56                   	push   %rsi
  103720:	57                   	push   %rdi
  103721:	41 50                	push   %r8
  103723:	41 51                	push   %r9
  103725:	41 52                	push   %r10
  103727:	41 53                	push   %r11
  103729:	fc                   	cld    
  10372a:	ff 14 25 40 a3 10 00 	callq  *0x10a340
  103731:	b0 20                	mov    $0x20,%al
  103733:	e6 20                	out    %al,$0x20
  103735:	41 5b                	pop    %r11
  103737:	41 5a                	pop    %r10
  103739:	41 59                	pop    %r9
  10373b:	41 58                	pop    %r8
  10373d:	5f                   	pop    %rdi
  10373e:	5e                   	pop    %rsi
  10373f:	5a                   	pop    %rdx
  103740:	59                   	pop    %rcx
  103741:	58                   	pop    %rax
  103742:	48 81 c4 82 00 00 00 	add    $0x82,%rsp
  103749:	48 cf                	iretq  

000000000010374b <interrupt_shim_105>:
  10374b:	48 81 ec 82 00 00 00 	sub    $0x82,%rsp
  103752:	50                   	push   %rax
  103753:	51                   	push   %rcx
  103754:	52                   	push   %rdx
  103755:	56                   	push   %rsi
  103756:	57                   	push   %rdi
  103757:	41 50                	push   %r8
  103759:	41 51                	push   %r9
  10375b:	41 52                	push   %r10
  10375d:	41 53                	push   %r11
  10375f:	fc                   	cld    
  103760:	ff 14 25 48 a3 10 00 	callq  *0x10a348
  103767:	b0 20                	mov    $0x20,%al
  103769:	e6 20                	out    %al,$0x20
  10376b:	41 5b                	pop    %r11
  10376d:	41 5a                	pop    %r10
  10376f:	41 59                	pop    %r9
  103771:	41 58                	pop    %r8
  103773:	5f                   	pop    %rdi
  103774:	5e                   	pop    %rsi
  103775:	5a                   	pop    %rdx
  103776:	59                   	pop    %rcx
  103777:	58                   	pop    %rax
  103778:	48 81 c4 82 00 00 00 	add    $0x82,%rsp
  10377f:	48 cf                	iretq  

0000000000103781 <interrupt_shim_106>:
  103781:	48 81 ec 82 00 00 00 	sub    $0x82,%rsp
  103788:	50                   	push   %rax
  103789:	51                   	push   %rcx
  10378a:	52                   	push   %rdx
  10378b:	56                   	push   %rsi
  10378c:	57                   	push   %rdi
  10378d:	41 50                	push   %r8
  10378f:	41 51                	push   %r9
  103791:	41 52                	push   %r10
  103793:	41 53                	push   %r11
  103795:	fc                   	cld    
  103796:	ff 14 25 50 a3 10 00 	callq  *0x10a350
  10379d:	b0 20                	mov    $0x20,%al
  10379f:	e6 20                	out    %al,$0x20
  1037a1:	41 5b                	pop    %r11
  1037a3:	41 5a                	pop    %r10
  1037a5:	41 59                	pop    %r9
  1037a7:	41 58                	pop    %r8
  1037a9:	5f                   	pop    %rdi
  1037aa:	5e                   	pop    %rsi
  1037ab:	5a                   	pop    %rdx
  1037ac:	59                   	pop    %rcx
  1037ad:	58                   	pop    %rax
  1037ae:	48 81 c4 82 00 00 00 	add    $0x82,%rsp
  1037b5:	48 cf                	iretq  

00000000001037b7 <interrupt_shim_107>:
  1037b7:	48 81 ec 82 00 00 00 	sub    $0x82,%rsp
  1037be:	50                   	push   %rax
  1037bf:	51                   	push   %rcx
  1037c0:	52                   	push   %rdx
  1037c1:	56                   	push   %rsi
  1037c2:	57                   	push   %rdi
  1037c3:	41 50                	push   %r8
  1037c5:	41 51                	push   %r9
  1037c7:	41 52                	push   %r10
  1037c9:	41 53                	push   %r11
  1037cb:	fc                   	cld    
  1037cc:	ff 14 25 58 a3 10 00 	callq  *0x10a358
  1037d3:	b0 20                	mov    $0x20,%al
  1037d5:	e6 20                	out    %al,$0x20
  1037d7:	41 5b                	pop    %r11
  1037d9:	41 5a                	pop    %r10
  1037db:	41 59                	pop    %r9
  1037dd:	41 58                	pop    %r8
  1037df:	5f                   	pop    %rdi
  1037e0:	5e                   	pop    %rsi
  1037e1:	5a                   	pop    %rdx
  1037e2:	59                   	pop    %rcx
  1037e3:	58                   	pop    %rax
  1037e4:	48 81 c4 82 00 00 00 	add    $0x82,%rsp
  1037eb:	48 cf                	iretq  

00000000001037ed <interrupt_shim_108>:
  1037ed:	48 81 ec 82 00 00 00 	sub    $0x82,%rsp
  1037f4:	50                   	push   %rax
  1037f5:	51                   	push   %rcx
  1037f6:	52                   	push   %rdx
  1037f7:	56                   	push   %rsi
  1037f8:	57                   	push   %rdi
  1037f9:	41 50                	push   %r8
  1037fb:	41 51                	push   %r9
  1037fd:	41 52                	push   %r10
  1037ff:	41 53                	push   %r11
  103801:	fc                   	cld    
  103802:	ff 14 25 60 a3 10 00 	callq  *0x10a360
  103809:	b0 20                	mov    $0x20,%al
  10380b:	e6 20                	out    %al,$0x20
  10380d:	41 5b                	pop    %r11
  10380f:	41 5a                	pop    %r10
  103811:	41 59                	pop    %r9
  103813:	41 58                	pop    %r8
  103815:	5f                   	pop    %rdi
  103816:	5e                   	pop    %rsi
  103817:	5a                   	pop    %rdx
  103818:	59                   	pop    %rcx
  103819:	58                   	pop    %rax
  10381a:	48 81 c4 82 00 00 00 	add    $0x82,%rsp
  103821:	48 cf                	iretq  

0000000000103823 <interrupt_shim_109>:
  103823:	48 81 ec 82 00 00 00 	sub    $0x82,%rsp
  10382a:	50                   	push   %rax
  10382b:	51                   	push   %rcx
  10382c:	52                   	push   %rdx
  10382d:	56                   	push   %rsi
  10382e:	57                   	push   %rdi
  10382f:	41 50                	push   %r8
  103831:	41 51                	push   %r9
  103833:	41 52                	push   %r10
  103835:	41 53                	push   %r11
  103837:	fc                   	cld    
  103838:	ff 14 25 68 a3 10 00 	callq  *0x10a368
  10383f:	b0 20                	mov    $0x20,%al
  103841:	e6 20                	out    %al,$0x20
  103843:	41 5b                	pop    %r11
  103845:	41 5a                	pop    %r10
  103847:	41 59                	pop    %r9
  103849:	41 58                	pop    %r8
  10384b:	5f                   	pop    %rdi
  10384c:	5e                   	pop    %rsi
  10384d:	5a                   	pop    %rdx
  10384e:	59                   	pop    %rcx
  10384f:	58                   	pop    %rax
  103850:	48 81 c4 82 00 00 00 	add    $0x82,%rsp
  103857:	48 cf                	iretq  

0000000000103859 <interrupt_shim_110>:
  103859:	48 81 ec 82 00 00 00 	sub    $0x82,%rsp
  103860:	50                   	push   %rax
  103861:	51                   	push   %rcx
  103862:	52                   	push   %rdx
  103863:	56                   	push   %rsi
  103864:	57                   	push   %rdi
  103865:	41 50                	push   %r8
  103867:	41 51                	push   %r9
  103869:	41 52                	push   %r10
  10386b:	41 53                	push   %r11
  10386d:	fc                   	cld    
  10386e:	ff 14 25 70 a3 10 00 	callq  *0x10a370
  103875:	b0 20                	mov    $0x20,%al
  103877:	e6 20                	out    %al,$0x20
  103879:	41 5b                	pop    %r11
  10387b:	41 5a                	pop    %r10
  10387d:	41 59                	pop    %r9
  10387f:	41 58                	pop    %r8
  103881:	5f                   	pop    %rdi
  103882:	5e                   	pop    %rsi
  103883:	5a                   	pop    %rdx
  103884:	59                   	pop    %rcx
  103885:	58                   	pop    %rax
  103886:	48 81 c4 82 00 00 00 	add    $0x82,%rsp
  10388d:	48 cf                	iretq  

000000000010388f <interrupt_shim_111>:
  10388f:	48 81 ec 82 00 00 00 	sub    $0x82,%rsp
  103896:	50                   	push   %rax
  103897:	51                   	push   %rcx
  103898:	52                   	push   %rdx
  103899:	56                   	push   %rsi
  10389a:	57                   	push   %rdi
  10389b:	41 50                	push   %r8
  10389d:	41 51                	push   %r9
  10389f:	41 52                	push   %r10
  1038a1:	41 53                	push   %r11
  1038a3:	fc                   	cld    
  1038a4:	ff 14 25 78 a3 10 00 	callq  *0x10a378
  1038ab:	b0 20                	mov    $0x20,%al
  1038ad:	e6 20                	out    %al,$0x20
  1038af:	41 5b                	pop    %r11
  1038b1:	41 5a                	pop    %r10
  1038b3:	41 59                	pop    %r9
  1038b5:	41 58                	pop    %r8
  1038b7:	5f                   	pop    %rdi
  1038b8:	5e                   	pop    %rsi
  1038b9:	5a                   	pop    %rdx
  1038ba:	59                   	pop    %rcx
  1038bb:	58                   	pop    %rax
  1038bc:	48 81 c4 82 00 00 00 	add    $0x82,%rsp
  1038c3:	48 cf                	iretq  

00000000001038c5 <interrupt_shim_112>:
  1038c5:	48 81 ec 82 00 00 00 	sub    $0x82,%rsp
  1038cc:	50                   	push   %rax
  1038cd:	51                   	push   %rcx
  1038ce:	52                   	push   %rdx
  1038cf:	56                   	push   %rsi
  1038d0:	57                   	push   %rdi
  1038d1:	41 50                	push   %r8
  1038d3:	41 51                	push   %r9
  1038d5:	41 52                	push   %r10
  1038d7:	41 53                	push   %r11
  1038d9:	fc                   	cld    
  1038da:	ff 14 25 80 a3 10 00 	callq  *0x10a380
  1038e1:	b0 20                	mov    $0x20,%al
  1038e3:	e6 20                	out    %al,$0x20
  1038e5:	41 5b                	pop    %r11
  1038e7:	41 5a                	pop    %r10
  1038e9:	41 59                	pop    %r9
  1038eb:	41 58                	pop    %r8
  1038ed:	5f                   	pop    %rdi
  1038ee:	5e                   	pop    %rsi
  1038ef:	5a                   	pop    %rdx
  1038f0:	59                   	pop    %rcx
  1038f1:	58                   	pop    %rax
  1038f2:	48 81 c4 82 00 00 00 	add    $0x82,%rsp
  1038f9:	48 cf                	iretq  

00000000001038fb <interrupt_shim_113>:
  1038fb:	48 81 ec 82 00 00 00 	sub    $0x82,%rsp
  103902:	50                   	push   %rax
  103903:	51                   	push   %rcx
  103904:	52                   	push   %rdx
  103905:	56                   	push   %rsi
  103906:	57                   	push   %rdi
  103907:	41 50                	push   %r8
  103909:	41 51                	push   %r9
  10390b:	41 52                	push   %r10
  10390d:	41 53                	push   %r11
  10390f:	fc                   	cld    
  103910:	ff 14 25 88 a3 10 00 	callq  *0x10a388
  103917:	b0 20                	mov    $0x20,%al
  103919:	e6 20                	out    %al,$0x20
  10391b:	41 5b                	pop    %r11
  10391d:	41 5a                	pop    %r10
  10391f:	41 59                	pop    %r9
  103921:	41 58                	pop    %r8
  103923:	5f                   	pop    %rdi
  103924:	5e                   	pop    %rsi
  103925:	5a                   	pop    %rdx
  103926:	59                   	pop    %rcx
  103927:	58                   	pop    %rax
  103928:	48 81 c4 82 00 00 00 	add    $0x82,%rsp
  10392f:	48 cf                	iretq  

0000000000103931 <interrupt_shim_114>:
  103931:	48 81 ec 82 00 00 00 	sub    $0x82,%rsp
  103938:	50                   	push   %rax
  103939:	51                   	push   %rcx
  10393a:	52                   	push   %rdx
  10393b:	56                   	push   %rsi
  10393c:	57                   	push   %rdi
  10393d:	41 50                	push   %r8
  10393f:	41 51                	push   %r9
  103941:	41 52                	push   %r10
  103943:	41 53                	push   %r11
  103945:	fc                   	cld    
  103946:	ff 14 25 90 a3 10 00 	callq  *0x10a390
  10394d:	b0 20                	mov    $0x20,%al
  10394f:	e6 20                	out    %al,$0x20
  103951:	41 5b                	pop    %r11
  103953:	41 5a                	pop    %r10
  103955:	41 59                	pop    %r9
  103957:	41 58                	pop    %r8
  103959:	5f                   	pop    %rdi
  10395a:	5e                   	pop    %rsi
  10395b:	5a                   	pop    %rdx
  10395c:	59                   	pop    %rcx
  10395d:	58                   	pop    %rax
  10395e:	48 81 c4 82 00 00 00 	add    $0x82,%rsp
  103965:	48 cf                	iretq  

0000000000103967 <interrupt_shim_115>:
  103967:	48 81 ec 82 00 00 00 	sub    $0x82,%rsp
  10396e:	50                   	push   %rax
  10396f:	51                   	push   %rcx
  103970:	52                   	push   %rdx
  103971:	56                   	push   %rsi
  103972:	57                   	push   %rdi
  103973:	41 50                	push   %r8
  103975:	41 51                	push   %r9
  103977:	41 52                	push   %r10
  103979:	41 53                	push   %r11
  10397b:	fc                   	cld    
  10397c:	ff 14 25 98 a3 10 00 	callq  *0x10a398
  103983:	b0 20                	mov    $0x20,%al
  103985:	e6 20                	out    %al,$0x20
  103987:	41 5b                	pop    %r11
  103989:	41 5a                	pop    %r10
  10398b:	41 59                	pop    %r9
  10398d:	41 58                	pop    %r8
  10398f:	5f                   	pop    %rdi
  103990:	5e                   	pop    %rsi
  103991:	5a                   	pop    %rdx
  103992:	59                   	pop    %rcx
  103993:	58                   	pop    %rax
  103994:	48 81 c4 82 00 00 00 	add    $0x82,%rsp
  10399b:	48 cf                	iretq  

000000000010399d <interrupt_shim_116>:
  10399d:	48 81 ec 82 00 00 00 	sub    $0x82,%rsp
  1039a4:	50                   	push   %rax
  1039a5:	51                   	push   %rcx
  1039a6:	52                   	push   %rdx
  1039a7:	56                   	push   %rsi
  1039a8:	57                   	push   %rdi
  1039a9:	41 50                	push   %r8
  1039ab:	41 51                	push   %r9
  1039ad:	41 52                	push   %r10
  1039af:	41 53                	push   %r11
  1039b1:	fc                   	cld    
  1039b2:	ff 14 25 a0 a3 10 00 	callq  *0x10a3a0
  1039b9:	b0 20                	mov    $0x20,%al
  1039bb:	e6 20                	out    %al,$0x20
  1039bd:	41 5b                	pop    %r11
  1039bf:	41 5a                	pop    %r10
  1039c1:	41 59                	pop    %r9
  1039c3:	41 58                	pop    %r8
  1039c5:	5f                   	pop    %rdi
  1039c6:	5e                   	pop    %rsi
  1039c7:	5a                   	pop    %rdx
  1039c8:	59                   	pop    %rcx
  1039c9:	58                   	pop    %rax
  1039ca:	48 81 c4 82 00 00 00 	add    $0x82,%rsp
  1039d1:	48 cf                	iretq  

00000000001039d3 <interrupt_shim_117>:
  1039d3:	48 81 ec 82 00 00 00 	sub    $0x82,%rsp
  1039da:	50                   	push   %rax
  1039db:	51                   	push   %rcx
  1039dc:	52                   	push   %rdx
  1039dd:	56                   	push   %rsi
  1039de:	57                   	push   %rdi
  1039df:	41 50                	push   %r8
  1039e1:	41 51                	push   %r9
  1039e3:	41 52                	push   %r10
  1039e5:	41 53                	push   %r11
  1039e7:	fc                   	cld    
  1039e8:	ff 14 25 a8 a3 10 00 	callq  *0x10a3a8
  1039ef:	b0 20                	mov    $0x20,%al
  1039f1:	e6 20                	out    %al,$0x20
  1039f3:	41 5b                	pop    %r11
  1039f5:	41 5a                	pop    %r10
  1039f7:	41 59                	pop    %r9
  1039f9:	41 58                	pop    %r8
  1039fb:	5f                   	pop    %rdi
  1039fc:	5e                   	pop    %rsi
  1039fd:	5a                   	pop    %rdx
  1039fe:	59                   	pop    %rcx
  1039ff:	58                   	pop    %rax
  103a00:	48 81 c4 82 00 00 00 	add    $0x82,%rsp
  103a07:	48 cf                	iretq  

0000000000103a09 <interrupt_shim_118>:
  103a09:	48 81 ec 82 00 00 00 	sub    $0x82,%rsp
  103a10:	50                   	push   %rax
  103a11:	51                   	push   %rcx
  103a12:	52                   	push   %rdx
  103a13:	56                   	push   %rsi
  103a14:	57                   	push   %rdi
  103a15:	41 50                	push   %r8
  103a17:	41 51                	push   %r9
  103a19:	41 52                	push   %r10
  103a1b:	41 53                	push   %r11
  103a1d:	fc                   	cld    
  103a1e:	ff 14 25 b0 a3 10 00 	callq  *0x10a3b0
  103a25:	b0 20                	mov    $0x20,%al
  103a27:	e6 20                	out    %al,$0x20
  103a29:	41 5b                	pop    %r11
  103a2b:	41 5a                	pop    %r10
  103a2d:	41 59                	pop    %r9
  103a2f:	41 58                	pop    %r8
  103a31:	5f                   	pop    %rdi
  103a32:	5e                   	pop    %rsi
  103a33:	5a                   	pop    %rdx
  103a34:	59                   	pop    %rcx
  103a35:	58                   	pop    %rax
  103a36:	48 81 c4 82 00 00 00 	add    $0x82,%rsp
  103a3d:	48 cf                	iretq  

0000000000103a3f <interrupt_shim_119>:
  103a3f:	48 81 ec 82 00 00 00 	sub    $0x82,%rsp
  103a46:	50                   	push   %rax
  103a47:	51                   	push   %rcx
  103a48:	52                   	push   %rdx
  103a49:	56                   	push   %rsi
  103a4a:	57                   	push   %rdi
  103a4b:	41 50                	push   %r8
  103a4d:	41 51                	push   %r9
  103a4f:	41 52                	push   %r10
  103a51:	41 53                	push   %r11
  103a53:	fc                   	cld    
  103a54:	ff 14 25 b8 a3 10 00 	callq  *0x10a3b8
  103a5b:	b0 20                	mov    $0x20,%al
  103a5d:	e6 20                	out    %al,$0x20
  103a5f:	41 5b                	pop    %r11
  103a61:	41 5a                	pop    %r10
  103a63:	41 59                	pop    %r9
  103a65:	41 58                	pop    %r8
  103a67:	5f                   	pop    %rdi
  103a68:	5e                   	pop    %rsi
  103a69:	5a                   	pop    %rdx
  103a6a:	59                   	pop    %rcx
  103a6b:	58                   	pop    %rax
  103a6c:	48 81 c4 82 00 00 00 	add    $0x82,%rsp
  103a73:	48 cf                	iretq  

0000000000103a75 <interrupt_shim_120>:
  103a75:	48 81 ec 82 00 00 00 	sub    $0x82,%rsp
  103a7c:	50                   	push   %rax
  103a7d:	51                   	push   %rcx
  103a7e:	52                   	push   %rdx
  103a7f:	56                   	push   %rsi
  103a80:	57                   	push   %rdi
  103a81:	41 50                	push   %r8
  103a83:	41 51                	push   %r9
  103a85:	41 52                	push   %r10
  103a87:	41 53                	push   %r11
  103a89:	fc                   	cld    
  103a8a:	ff 14 25 c0 a3 10 00 	callq  *0x10a3c0
  103a91:	b0 20                	mov    $0x20,%al
  103a93:	e6 20                	out    %al,$0x20
  103a95:	41 5b                	pop    %r11
  103a97:	41 5a                	pop    %r10
  103a99:	41 59                	pop    %r9
  103a9b:	41 58                	pop    %r8
  103a9d:	5f                   	pop    %rdi
  103a9e:	5e                   	pop    %rsi
  103a9f:	5a                   	pop    %rdx
  103aa0:	59                   	pop    %rcx
  103aa1:	58                   	pop    %rax
  103aa2:	48 81 c4 82 00 00 00 	add    $0x82,%rsp
  103aa9:	48 cf                	iretq  

0000000000103aab <interrupt_shim_121>:
  103aab:	48 81 ec 82 00 00 00 	sub    $0x82,%rsp
  103ab2:	50                   	push   %rax
  103ab3:	51                   	push   %rcx
  103ab4:	52                   	push   %rdx
  103ab5:	56                   	push   %rsi
  103ab6:	57                   	push   %rdi
  103ab7:	41 50                	push   %r8
  103ab9:	41 51                	push   %r9
  103abb:	41 52                	push   %r10
  103abd:	41 53                	push   %r11
  103abf:	fc                   	cld    
  103ac0:	ff 14 25 c8 a3 10 00 	callq  *0x10a3c8
  103ac7:	b0 20                	mov    $0x20,%al
  103ac9:	e6 20                	out    %al,$0x20
  103acb:	41 5b                	pop    %r11
  103acd:	41 5a                	pop    %r10
  103acf:	41 59                	pop    %r9
  103ad1:	41 58                	pop    %r8
  103ad3:	5f                   	pop    %rdi
  103ad4:	5e                   	pop    %rsi
  103ad5:	5a                   	pop    %rdx
  103ad6:	59                   	pop    %rcx
  103ad7:	58                   	pop    %rax
  103ad8:	48 81 c4 82 00 00 00 	add    $0x82,%rsp
  103adf:	48 cf                	iretq  

0000000000103ae1 <interrupt_shim_122>:
  103ae1:	48 81 ec 82 00 00 00 	sub    $0x82,%rsp
  103ae8:	50                   	push   %rax
  103ae9:	51                   	push   %rcx
  103aea:	52                   	push   %rdx
  103aeb:	56                   	push   %rsi
  103aec:	57                   	push   %rdi
  103aed:	41 50                	push   %r8
  103aef:	41 51                	push   %r9
  103af1:	41 52                	push   %r10
  103af3:	41 53                	push   %r11
  103af5:	fc                   	cld    
  103af6:	ff 14 25 d0 a3 10 00 	callq  *0x10a3d0
  103afd:	b0 20                	mov    $0x20,%al
  103aff:	e6 20                	out    %al,$0x20
  103b01:	41 5b                	pop    %r11
  103b03:	41 5a                	pop    %r10
  103b05:	41 59                	pop    %r9
  103b07:	41 58                	pop    %r8
  103b09:	5f                   	pop    %rdi
  103b0a:	5e                   	pop    %rsi
  103b0b:	5a                   	pop    %rdx
  103b0c:	59                   	pop    %rcx
  103b0d:	58                   	pop    %rax
  103b0e:	48 81 c4 82 00 00 00 	add    $0x82,%rsp
  103b15:	48 cf                	iretq  

0000000000103b17 <interrupt_shim_123>:
  103b17:	48 81 ec 82 00 00 00 	sub    $0x82,%rsp
  103b1e:	50                   	push   %rax
  103b1f:	51                   	push   %rcx
  103b20:	52                   	push   %rdx
  103b21:	56                   	push   %rsi
  103b22:	57                   	push   %rdi
  103b23:	41 50                	push   %r8
  103b25:	41 51                	push   %r9
  103b27:	41 52                	push   %r10
  103b29:	41 53                	push   %r11
  103b2b:	fc                   	cld    
  103b2c:	ff 14 25 d8 a3 10 00 	callq  *0x10a3d8
  103b33:	b0 20                	mov    $0x20,%al
  103b35:	e6 20                	out    %al,$0x20
  103b37:	41 5b                	pop    %r11
  103b39:	41 5a                	pop    %r10
  103b3b:	41 59                	pop    %r9
  103b3d:	41 58                	pop    %r8
  103b3f:	5f                   	pop    %rdi
  103b40:	5e                   	pop    %rsi
  103b41:	5a                   	pop    %rdx
  103b42:	59                   	pop    %rcx
  103b43:	58                   	pop    %rax
  103b44:	48 81 c4 82 00 00 00 	add    $0x82,%rsp
  103b4b:	48 cf                	iretq  

0000000000103b4d <interrupt_shim_124>:
  103b4d:	48 81 ec 82 00 00 00 	sub    $0x82,%rsp
  103b54:	50                   	push   %rax
  103b55:	51                   	push   %rcx
  103b56:	52                   	push   %rdx
  103b57:	56                   	push   %rsi
  103b58:	57                   	push   %rdi
  103b59:	41 50                	push   %r8
  103b5b:	41 51                	push   %r9
  103b5d:	41 52                	push   %r10
  103b5f:	41 53                	push   %r11
  103b61:	fc                   	cld    
  103b62:	ff 14 25 e0 a3 10 00 	callq  *0x10a3e0
  103b69:	b0 20                	mov    $0x20,%al
  103b6b:	e6 20                	out    %al,$0x20
  103b6d:	41 5b                	pop    %r11
  103b6f:	41 5a                	pop    %r10
  103b71:	41 59                	pop    %r9
  103b73:	41 58                	pop    %r8
  103b75:	5f                   	pop    %rdi
  103b76:	5e                   	pop    %rsi
  103b77:	5a                   	pop    %rdx
  103b78:	59                   	pop    %rcx
  103b79:	58                   	pop    %rax
  103b7a:	48 81 c4 82 00 00 00 	add    $0x82,%rsp
  103b81:	48 cf                	iretq  

0000000000103b83 <interrupt_shim_125>:
  103b83:	48 81 ec 82 00 00 00 	sub    $0x82,%rsp
  103b8a:	50                   	push   %rax
  103b8b:	51                   	push   %rcx
  103b8c:	52                   	push   %rdx
  103b8d:	56                   	push   %rsi
  103b8e:	57                   	push   %rdi
  103b8f:	41 50                	push   %r8
  103b91:	41 51                	push   %r9
  103b93:	41 52                	push   %r10
  103b95:	41 53                	push   %r11
  103b97:	fc                   	cld    
  103b98:	ff 14 25 e8 a3 10 00 	callq  *0x10a3e8
  103b9f:	b0 20                	mov    $0x20,%al
  103ba1:	e6 20                	out    %al,$0x20
  103ba3:	41 5b                	pop    %r11
  103ba5:	41 5a                	pop    %r10
  103ba7:	41 59                	pop    %r9
  103ba9:	41 58                	pop    %r8
  103bab:	5f                   	pop    %rdi
  103bac:	5e                   	pop    %rsi
  103bad:	5a                   	pop    %rdx
  103bae:	59                   	pop    %rcx
  103baf:	58                   	pop    %rax
  103bb0:	48 81 c4 82 00 00 00 	add    $0x82,%rsp
  103bb7:	48 cf                	iretq  

0000000000103bb9 <interrupt_shim_126>:
  103bb9:	48 81 ec 82 00 00 00 	sub    $0x82,%rsp
  103bc0:	50                   	push   %rax
  103bc1:	51                   	push   %rcx
  103bc2:	52                   	push   %rdx
  103bc3:	56                   	push   %rsi
  103bc4:	57                   	push   %rdi
  103bc5:	41 50                	push   %r8
  103bc7:	41 51                	push   %r9
  103bc9:	41 52                	push   %r10
  103bcb:	41 53                	push   %r11
  103bcd:	fc                   	cld    
  103bce:	ff 14 25 f0 a3 10 00 	callq  *0x10a3f0
  103bd5:	b0 20                	mov    $0x20,%al
  103bd7:	e6 20                	out    %al,$0x20
  103bd9:	41 5b                	pop    %r11
  103bdb:	41 5a                	pop    %r10
  103bdd:	41 59                	pop    %r9
  103bdf:	41 58                	pop    %r8
  103be1:	5f                   	pop    %rdi
  103be2:	5e                   	pop    %rsi
  103be3:	5a                   	pop    %rdx
  103be4:	59                   	pop    %rcx
  103be5:	58                   	pop    %rax
  103be6:	48 81 c4 82 00 00 00 	add    $0x82,%rsp
  103bed:	48 cf                	iretq  

0000000000103bef <interrupt_shim_127>:
  103bef:	48 81 ec 82 00 00 00 	sub    $0x82,%rsp
  103bf6:	50                   	push   %rax
  103bf7:	51                   	push   %rcx
  103bf8:	52                   	push   %rdx
  103bf9:	56                   	push   %rsi
  103bfa:	57                   	push   %rdi
  103bfb:	41 50                	push   %r8
  103bfd:	41 51                	push   %r9
  103bff:	41 52                	push   %r10
  103c01:	41 53                	push   %r11
  103c03:	fc                   	cld    
  103c04:	ff 14 25 f8 a3 10 00 	callq  *0x10a3f8
  103c0b:	b0 20                	mov    $0x20,%al
  103c0d:	e6 20                	out    %al,$0x20
  103c0f:	41 5b                	pop    %r11
  103c11:	41 5a                	pop    %r10
  103c13:	41 59                	pop    %r9
  103c15:	41 58                	pop    %r8
  103c17:	5f                   	pop    %rdi
  103c18:	5e                   	pop    %rsi
  103c19:	5a                   	pop    %rdx
  103c1a:	59                   	pop    %rcx
  103c1b:	58                   	pop    %rax
  103c1c:	48 81 c4 82 00 00 00 	add    $0x82,%rsp
  103c23:	48 cf                	iretq  

0000000000103c25 <interrupt_shim_128>:
  103c25:	48 81 ec 82 00 00 00 	sub    $0x82,%rsp
  103c2c:	50                   	push   %rax
  103c2d:	51                   	push   %rcx
  103c2e:	52                   	push   %rdx
  103c2f:	56                   	push   %rsi
  103c30:	57                   	push   %rdi
  103c31:	41 50                	push   %r8
  103c33:	41 51                	push   %r9
  103c35:	41 52                	push   %r10
  103c37:	41 53                	push   %r11
  103c39:	fc                   	cld    
  103c3a:	ff 14 25 00 a4 10 00 	callq  *0x10a400
  103c41:	b0 20                	mov    $0x20,%al
  103c43:	e6 20                	out    %al,$0x20
  103c45:	41 5b                	pop    %r11
  103c47:	41 5a                	pop    %r10
  103c49:	41 59                	pop    %r9
  103c4b:	41 58                	pop    %r8
  103c4d:	5f                   	pop    %rdi
  103c4e:	5e                   	pop    %rsi
  103c4f:	5a                   	pop    %rdx
  103c50:	59                   	pop    %rcx
  103c51:	58                   	pop    %rax
  103c52:	48 81 c4 82 00 00 00 	add    $0x82,%rsp
  103c59:	48 cf                	iretq  

0000000000103c5b <interrupt_shim_129>:
  103c5b:	48 81 ec 82 00 00 00 	sub    $0x82,%rsp
  103c62:	50                   	push   %rax
  103c63:	51                   	push   %rcx
  103c64:	52                   	push   %rdx
  103c65:	56                   	push   %rsi
  103c66:	57                   	push   %rdi
  103c67:	41 50                	push   %r8
  103c69:	41 51                	push   %r9
  103c6b:	41 52                	push   %r10
  103c6d:	41 53                	push   %r11
  103c6f:	fc                   	cld    
  103c70:	ff 14 25 08 a4 10 00 	callq  *0x10a408
  103c77:	b0 20                	mov    $0x20,%al
  103c79:	e6 20                	out    %al,$0x20
  103c7b:	41 5b                	pop    %r11
  103c7d:	41 5a                	pop    %r10
  103c7f:	41 59                	pop    %r9
  103c81:	41 58                	pop    %r8
  103c83:	5f                   	pop    %rdi
  103c84:	5e                   	pop    %rsi
  103c85:	5a                   	pop    %rdx
  103c86:	59                   	pop    %rcx
  103c87:	58                   	pop    %rax
  103c88:	48 81 c4 82 00 00 00 	add    $0x82,%rsp
  103c8f:	48 cf                	iretq  

0000000000103c91 <interrupt_shim_130>:
  103c91:	48 81 ec 82 00 00 00 	sub    $0x82,%rsp
  103c98:	50                   	push   %rax
  103c99:	51                   	push   %rcx
  103c9a:	52                   	push   %rdx
  103c9b:	56                   	push   %rsi
  103c9c:	57                   	push   %rdi
  103c9d:	41 50                	push   %r8
  103c9f:	41 51                	push   %r9
  103ca1:	41 52                	push   %r10
  103ca3:	41 53                	push   %r11
  103ca5:	fc                   	cld    
  103ca6:	ff 14 25 10 a4 10 00 	callq  *0x10a410
  103cad:	b0 20                	mov    $0x20,%al
  103caf:	e6 20                	out    %al,$0x20
  103cb1:	41 5b                	pop    %r11
  103cb3:	41 5a                	pop    %r10
  103cb5:	41 59                	pop    %r9
  103cb7:	41 58                	pop    %r8
  103cb9:	5f                   	pop    %rdi
  103cba:	5e                   	pop    %rsi
  103cbb:	5a                   	pop    %rdx
  103cbc:	59                   	pop    %rcx
  103cbd:	58                   	pop    %rax
  103cbe:	48 81 c4 82 00 00 00 	add    $0x82,%rsp
  103cc5:	48 cf                	iretq  

0000000000103cc7 <interrupt_shim_131>:
  103cc7:	48 81 ec 82 00 00 00 	sub    $0x82,%rsp
  103cce:	50                   	push   %rax
  103ccf:	51                   	push   %rcx
  103cd0:	52                   	push   %rdx
  103cd1:	56                   	push   %rsi
  103cd2:	57                   	push   %rdi
  103cd3:	41 50                	push   %r8
  103cd5:	41 51                	push   %r9
  103cd7:	41 52                	push   %r10
  103cd9:	41 53                	push   %r11
  103cdb:	fc                   	cld    
  103cdc:	ff 14 25 18 a4 10 00 	callq  *0x10a418
  103ce3:	b0 20                	mov    $0x20,%al
  103ce5:	e6 20                	out    %al,$0x20
  103ce7:	41 5b                	pop    %r11
  103ce9:	41 5a                	pop    %r10
  103ceb:	41 59                	pop    %r9
  103ced:	41 58                	pop    %r8
  103cef:	5f                   	pop    %rdi
  103cf0:	5e                   	pop    %rsi
  103cf1:	5a                   	pop    %rdx
  103cf2:	59                   	pop    %rcx
  103cf3:	58                   	pop    %rax
  103cf4:	48 81 c4 82 00 00 00 	add    $0x82,%rsp
  103cfb:	48 cf                	iretq  

0000000000103cfd <interrupt_shim_132>:
  103cfd:	48 81 ec 82 00 00 00 	sub    $0x82,%rsp
  103d04:	50                   	push   %rax
  103d05:	51                   	push   %rcx
  103d06:	52                   	push   %rdx
  103d07:	56                   	push   %rsi
  103d08:	57                   	push   %rdi
  103d09:	41 50                	push   %r8
  103d0b:	41 51                	push   %r9
  103d0d:	41 52                	push   %r10
  103d0f:	41 53                	push   %r11
  103d11:	fc                   	cld    
  103d12:	ff 14 25 20 a4 10 00 	callq  *0x10a420
  103d19:	b0 20                	mov    $0x20,%al
  103d1b:	e6 20                	out    %al,$0x20
  103d1d:	41 5b                	pop    %r11
  103d1f:	41 5a                	pop    %r10
  103d21:	41 59                	pop    %r9
  103d23:	41 58                	pop    %r8
  103d25:	5f                   	pop    %rdi
  103d26:	5e                   	pop    %rsi
  103d27:	5a                   	pop    %rdx
  103d28:	59                   	pop    %rcx
  103d29:	58                   	pop    %rax
  103d2a:	48 81 c4 82 00 00 00 	add    $0x82,%rsp
  103d31:	48 cf                	iretq  

0000000000103d33 <interrupt_shim_133>:
  103d33:	48 81 ec 82 00 00 00 	sub    $0x82,%rsp
  103d3a:	50                   	push   %rax
  103d3b:	51                   	push   %rcx
  103d3c:	52                   	push   %rdx
  103d3d:	56                   	push   %rsi
  103d3e:	57                   	push   %rdi
  103d3f:	41 50                	push   %r8
  103d41:	41 51                	push   %r9
  103d43:	41 52                	push   %r10
  103d45:	41 53                	push   %r11
  103d47:	fc                   	cld    
  103d48:	ff 14 25 28 a4 10 00 	callq  *0x10a428
  103d4f:	b0 20                	mov    $0x20,%al
  103d51:	e6 20                	out    %al,$0x20
  103d53:	41 5b                	pop    %r11
  103d55:	41 5a                	pop    %r10
  103d57:	41 59                	pop    %r9
  103d59:	41 58                	pop    %r8
  103d5b:	5f                   	pop    %rdi
  103d5c:	5e                   	pop    %rsi
  103d5d:	5a                   	pop    %rdx
  103d5e:	59                   	pop    %rcx
  103d5f:	58                   	pop    %rax
  103d60:	48 81 c4 82 00 00 00 	add    $0x82,%rsp
  103d67:	48 cf                	iretq  

0000000000103d69 <interrupt_shim_134>:
  103d69:	48 81 ec 82 00 00 00 	sub    $0x82,%rsp
  103d70:	50                   	push   %rax
  103d71:	51                   	push   %rcx
  103d72:	52                   	push   %rdx
  103d73:	56                   	push   %rsi
  103d74:	57                   	push   %rdi
  103d75:	41 50                	push   %r8
  103d77:	41 51                	push   %r9
  103d79:	41 52                	push   %r10
  103d7b:	41 53                	push   %r11
  103d7d:	fc                   	cld    
  103d7e:	ff 14 25 30 a4 10 00 	callq  *0x10a430
  103d85:	b0 20                	mov    $0x20,%al
  103d87:	e6 20                	out    %al,$0x20
  103d89:	41 5b                	pop    %r11
  103d8b:	41 5a                	pop    %r10
  103d8d:	41 59                	pop    %r9
  103d8f:	41 58                	pop    %r8
  103d91:	5f                   	pop    %rdi
  103d92:	5e                   	pop    %rsi
  103d93:	5a                   	pop    %rdx
  103d94:	59                   	pop    %rcx
  103d95:	58                   	pop    %rax
  103d96:	48 81 c4 82 00 00 00 	add    $0x82,%rsp
  103d9d:	48 cf                	iretq  

0000000000103d9f <interrupt_shim_135>:
  103d9f:	48 81 ec 82 00 00 00 	sub    $0x82,%rsp
  103da6:	50                   	push   %rax
  103da7:	51                   	push   %rcx
  103da8:	52                   	push   %rdx
  103da9:	56                   	push   %rsi
  103daa:	57                   	push   %rdi
  103dab:	41 50                	push   %r8
  103dad:	41 51                	push   %r9
  103daf:	41 52                	push   %r10
  103db1:	41 53                	push   %r11
  103db3:	fc                   	cld    
  103db4:	ff 14 25 38 a4 10 00 	callq  *0x10a438
  103dbb:	b0 20                	mov    $0x20,%al
  103dbd:	e6 20                	out    %al,$0x20
  103dbf:	41 5b                	pop    %r11
  103dc1:	41 5a                	pop    %r10
  103dc3:	41 59                	pop    %r9
  103dc5:	41 58                	pop    %r8
  103dc7:	5f                   	pop    %rdi
  103dc8:	5e                   	pop    %rsi
  103dc9:	5a                   	pop    %rdx
  103dca:	59                   	pop    %rcx
  103dcb:	58                   	pop    %rax
  103dcc:	48 81 c4 82 00 00 00 	add    $0x82,%rsp
  103dd3:	48 cf                	iretq  

0000000000103dd5 <interrupt_shim_136>:
  103dd5:	48 81 ec 82 00 00 00 	sub    $0x82,%rsp
  103ddc:	50                   	push   %rax
  103ddd:	51                   	push   %rcx
  103dde:	52                   	push   %rdx
  103ddf:	56                   	push   %rsi
  103de0:	57                   	push   %rdi
  103de1:	41 50                	push   %r8
  103de3:	41 51                	push   %r9
  103de5:	41 52                	push   %r10
  103de7:	41 53                	push   %r11
  103de9:	fc                   	cld    
  103dea:	ff 14 25 40 a4 10 00 	callq  *0x10a440
  103df1:	b0 20                	mov    $0x20,%al
  103df3:	e6 20                	out    %al,$0x20
  103df5:	41 5b                	pop    %r11
  103df7:	41 5a                	pop    %r10
  103df9:	41 59                	pop    %r9
  103dfb:	41 58                	pop    %r8
  103dfd:	5f                   	pop    %rdi
  103dfe:	5e                   	pop    %rsi
  103dff:	5a                   	pop    %rdx
  103e00:	59                   	pop    %rcx
  103e01:	58                   	pop    %rax
  103e02:	48 81 c4 82 00 00 00 	add    $0x82,%rsp
  103e09:	48 cf                	iretq  

0000000000103e0b <interrupt_shim_137>:
  103e0b:	48 81 ec 82 00 00 00 	sub    $0x82,%rsp
  103e12:	50                   	push   %rax
  103e13:	51                   	push   %rcx
  103e14:	52                   	push   %rdx
  103e15:	56                   	push   %rsi
  103e16:	57                   	push   %rdi
  103e17:	41 50                	push   %r8
  103e19:	41 51                	push   %r9
  103e1b:	41 52                	push   %r10
  103e1d:	41 53                	push   %r11
  103e1f:	fc                   	cld    
  103e20:	ff 14 25 48 a4 10 00 	callq  *0x10a448
  103e27:	b0 20                	mov    $0x20,%al
  103e29:	e6 20                	out    %al,$0x20
  103e2b:	41 5b                	pop    %r11
  103e2d:	41 5a                	pop    %r10
  103e2f:	41 59                	pop    %r9
  103e31:	41 58                	pop    %r8
  103e33:	5f                   	pop    %rdi
  103e34:	5e                   	pop    %rsi
  103e35:	5a                   	pop    %rdx
  103e36:	59                   	pop    %rcx
  103e37:	58                   	pop    %rax
  103e38:	48 81 c4 82 00 00 00 	add    $0x82,%rsp
  103e3f:	48 cf                	iretq  

0000000000103e41 <interrupt_shim_138>:
  103e41:	48 81 ec 82 00 00 00 	sub    $0x82,%rsp
  103e48:	50                   	push   %rax
  103e49:	51                   	push   %rcx
  103e4a:	52                   	push   %rdx
  103e4b:	56                   	push   %rsi
  103e4c:	57                   	push   %rdi
  103e4d:	41 50                	push   %r8
  103e4f:	41 51                	push   %r9
  103e51:	41 52                	push   %r10
  103e53:	41 53                	push   %r11
  103e55:	fc                   	cld    
  103e56:	ff 14 25 50 a4 10 00 	callq  *0x10a450
  103e5d:	b0 20                	mov    $0x20,%al
  103e5f:	e6 20                	out    %al,$0x20
  103e61:	41 5b                	pop    %r11
  103e63:	41 5a                	pop    %r10
  103e65:	41 59                	pop    %r9
  103e67:	41 58                	pop    %r8
  103e69:	5f                   	pop    %rdi
  103e6a:	5e                   	pop    %rsi
  103e6b:	5a                   	pop    %rdx
  103e6c:	59                   	pop    %rcx
  103e6d:	58                   	pop    %rax
  103e6e:	48 81 c4 82 00 00 00 	add    $0x82,%rsp
  103e75:	48 cf                	iretq  

0000000000103e77 <interrupt_shim_139>:
  103e77:	48 81 ec 82 00 00 00 	sub    $0x82,%rsp
  103e7e:	50                   	push   %rax
  103e7f:	51                   	push   %rcx
  103e80:	52                   	push   %rdx
  103e81:	56                   	push   %rsi
  103e82:	57                   	push   %rdi
  103e83:	41 50                	push   %r8
  103e85:	41 51                	push   %r9
  103e87:	41 52                	push   %r10
  103e89:	41 53                	push   %r11
  103e8b:	fc                   	cld    
  103e8c:	ff 14 25 58 a4 10 00 	callq  *0x10a458
  103e93:	b0 20                	mov    $0x20,%al
  103e95:	e6 20                	out    %al,$0x20
  103e97:	41 5b                	pop    %r11
  103e99:	41 5a                	pop    %r10
  103e9b:	41 59                	pop    %r9
  103e9d:	41 58                	pop    %r8
  103e9f:	5f                   	pop    %rdi
  103ea0:	5e                   	pop    %rsi
  103ea1:	5a                   	pop    %rdx
  103ea2:	59                   	pop    %rcx
  103ea3:	58                   	pop    %rax
  103ea4:	48 81 c4 82 00 00 00 	add    $0x82,%rsp
  103eab:	48 cf                	iretq  

0000000000103ead <interrupt_shim_140>:
  103ead:	48 81 ec 82 00 00 00 	sub    $0x82,%rsp
  103eb4:	50                   	push   %rax
  103eb5:	51                   	push   %rcx
  103eb6:	52                   	push   %rdx
  103eb7:	56                   	push   %rsi
  103eb8:	57                   	push   %rdi
  103eb9:	41 50                	push   %r8
  103ebb:	41 51                	push   %r9
  103ebd:	41 52                	push   %r10
  103ebf:	41 53                	push   %r11
  103ec1:	fc                   	cld    
  103ec2:	ff 14 25 60 a4 10 00 	callq  *0x10a460
  103ec9:	b0 20                	mov    $0x20,%al
  103ecb:	e6 20                	out    %al,$0x20
  103ecd:	41 5b                	pop    %r11
  103ecf:	41 5a                	pop    %r10
  103ed1:	41 59                	pop    %r9
  103ed3:	41 58                	pop    %r8
  103ed5:	5f                   	pop    %rdi
  103ed6:	5e                   	pop    %rsi
  103ed7:	5a                   	pop    %rdx
  103ed8:	59                   	pop    %rcx
  103ed9:	58                   	pop    %rax
  103eda:	48 81 c4 82 00 00 00 	add    $0x82,%rsp
  103ee1:	48 cf                	iretq  

0000000000103ee3 <interrupt_shim_141>:
  103ee3:	48 81 ec 82 00 00 00 	sub    $0x82,%rsp
  103eea:	50                   	push   %rax
  103eeb:	51                   	push   %rcx
  103eec:	52                   	push   %rdx
  103eed:	56                   	push   %rsi
  103eee:	57                   	push   %rdi
  103eef:	41 50                	push   %r8
  103ef1:	41 51                	push   %r9
  103ef3:	41 52                	push   %r10
  103ef5:	41 53                	push   %r11
  103ef7:	fc                   	cld    
  103ef8:	ff 14 25 68 a4 10 00 	callq  *0x10a468
  103eff:	b0 20                	mov    $0x20,%al
  103f01:	e6 20                	out    %al,$0x20
  103f03:	41 5b                	pop    %r11
  103f05:	41 5a                	pop    %r10
  103f07:	41 59                	pop    %r9
  103f09:	41 58                	pop    %r8
  103f0b:	5f                   	pop    %rdi
  103f0c:	5e                   	pop    %rsi
  103f0d:	5a                   	pop    %rdx
  103f0e:	59                   	pop    %rcx
  103f0f:	58                   	pop    %rax
  103f10:	48 81 c4 82 00 00 00 	add    $0x82,%rsp
  103f17:	48 cf                	iretq  

0000000000103f19 <interrupt_shim_142>:
  103f19:	48 81 ec 82 00 00 00 	sub    $0x82,%rsp
  103f20:	50                   	push   %rax
  103f21:	51                   	push   %rcx
  103f22:	52                   	push   %rdx
  103f23:	56                   	push   %rsi
  103f24:	57                   	push   %rdi
  103f25:	41 50                	push   %r8
  103f27:	41 51                	push   %r9
  103f29:	41 52                	push   %r10
  103f2b:	41 53                	push   %r11
  103f2d:	fc                   	cld    
  103f2e:	ff 14 25 70 a4 10 00 	callq  *0x10a470
  103f35:	b0 20                	mov    $0x20,%al
  103f37:	e6 20                	out    %al,$0x20
  103f39:	41 5b                	pop    %r11
  103f3b:	41 5a                	pop    %r10
  103f3d:	41 59                	pop    %r9
  103f3f:	41 58                	pop    %r8
  103f41:	5f                   	pop    %rdi
  103f42:	5e                   	pop    %rsi
  103f43:	5a                   	pop    %rdx
  103f44:	59                   	pop    %rcx
  103f45:	58                   	pop    %rax
  103f46:	48 81 c4 82 00 00 00 	add    $0x82,%rsp
  103f4d:	48 cf                	iretq  

0000000000103f4f <interrupt_shim_143>:
  103f4f:	48 81 ec 82 00 00 00 	sub    $0x82,%rsp
  103f56:	50                   	push   %rax
  103f57:	51                   	push   %rcx
  103f58:	52                   	push   %rdx
  103f59:	56                   	push   %rsi
  103f5a:	57                   	push   %rdi
  103f5b:	41 50                	push   %r8
  103f5d:	41 51                	push   %r9
  103f5f:	41 52                	push   %r10
  103f61:	41 53                	push   %r11
  103f63:	fc                   	cld    
  103f64:	ff 14 25 78 a4 10 00 	callq  *0x10a478
  103f6b:	b0 20                	mov    $0x20,%al
  103f6d:	e6 20                	out    %al,$0x20
  103f6f:	41 5b                	pop    %r11
  103f71:	41 5a                	pop    %r10
  103f73:	41 59                	pop    %r9
  103f75:	41 58                	pop    %r8
  103f77:	5f                   	pop    %rdi
  103f78:	5e                   	pop    %rsi
  103f79:	5a                   	pop    %rdx
  103f7a:	59                   	pop    %rcx
  103f7b:	58                   	pop    %rax
  103f7c:	48 81 c4 82 00 00 00 	add    $0x82,%rsp
  103f83:	48 cf                	iretq  

0000000000103f85 <interrupt_shim_144>:
  103f85:	48 81 ec 82 00 00 00 	sub    $0x82,%rsp
  103f8c:	50                   	push   %rax
  103f8d:	51                   	push   %rcx
  103f8e:	52                   	push   %rdx
  103f8f:	56                   	push   %rsi
  103f90:	57                   	push   %rdi
  103f91:	41 50                	push   %r8
  103f93:	41 51                	push   %r9
  103f95:	41 52                	push   %r10
  103f97:	41 53                	push   %r11
  103f99:	fc                   	cld    
  103f9a:	ff 14 25 80 a4 10 00 	callq  *0x10a480
  103fa1:	b0 20                	mov    $0x20,%al
  103fa3:	e6 20                	out    %al,$0x20
  103fa5:	41 5b                	pop    %r11
  103fa7:	41 5a                	pop    %r10
  103fa9:	41 59                	pop    %r9
  103fab:	41 58                	pop    %r8
  103fad:	5f                   	pop    %rdi
  103fae:	5e                   	pop    %rsi
  103faf:	5a                   	pop    %rdx
  103fb0:	59                   	pop    %rcx
  103fb1:	58                   	pop    %rax
  103fb2:	48 81 c4 82 00 00 00 	add    $0x82,%rsp
  103fb9:	48 cf                	iretq  

0000000000103fbb <interrupt_shim_145>:
  103fbb:	48 81 ec 82 00 00 00 	sub    $0x82,%rsp
  103fc2:	50                   	push   %rax
  103fc3:	51                   	push   %rcx
  103fc4:	52                   	push   %rdx
  103fc5:	56                   	push   %rsi
  103fc6:	57                   	push   %rdi
  103fc7:	41 50                	push   %r8
  103fc9:	41 51                	push   %r9
  103fcb:	41 52                	push   %r10
  103fcd:	41 53                	push   %r11
  103fcf:	fc                   	cld    
  103fd0:	ff 14 25 88 a4 10 00 	callq  *0x10a488
  103fd7:	b0 20                	mov    $0x20,%al
  103fd9:	e6 20                	out    %al,$0x20
  103fdb:	41 5b                	pop    %r11
  103fdd:	41 5a                	pop    %r10
  103fdf:	41 59                	pop    %r9
  103fe1:	41 58                	pop    %r8
  103fe3:	5f                   	pop    %rdi
  103fe4:	5e                   	pop    %rsi
  103fe5:	5a                   	pop    %rdx
  103fe6:	59                   	pop    %rcx
  103fe7:	58                   	pop    %rax
  103fe8:	48 81 c4 82 00 00 00 	add    $0x82,%rsp
  103fef:	48 cf                	iretq  

0000000000103ff1 <interrupt_shim_146>:
  103ff1:	48 81 ec 82 00 00 00 	sub    $0x82,%rsp
  103ff8:	50                   	push   %rax
  103ff9:	51                   	push   %rcx
  103ffa:	52                   	push   %rdx
  103ffb:	56                   	push   %rsi
  103ffc:	57                   	push   %rdi
  103ffd:	41 50                	push   %r8
  103fff:	41 51                	push   %r9
  104001:	41 52                	push   %r10
  104003:	41 53                	push   %r11
  104005:	fc                   	cld    
  104006:	ff 14 25 90 a4 10 00 	callq  *0x10a490
  10400d:	b0 20                	mov    $0x20,%al
  10400f:	e6 20                	out    %al,$0x20
  104011:	41 5b                	pop    %r11
  104013:	41 5a                	pop    %r10
  104015:	41 59                	pop    %r9
  104017:	41 58                	pop    %r8
  104019:	5f                   	pop    %rdi
  10401a:	5e                   	pop    %rsi
  10401b:	5a                   	pop    %rdx
  10401c:	59                   	pop    %rcx
  10401d:	58                   	pop    %rax
  10401e:	48 81 c4 82 00 00 00 	add    $0x82,%rsp
  104025:	48 cf                	iretq  

0000000000104027 <interrupt_shim_147>:
  104027:	48 81 ec 82 00 00 00 	sub    $0x82,%rsp
  10402e:	50                   	push   %rax
  10402f:	51                   	push   %rcx
  104030:	52                   	push   %rdx
  104031:	56                   	push   %rsi
  104032:	57                   	push   %rdi
  104033:	41 50                	push   %r8
  104035:	41 51                	push   %r9
  104037:	41 52                	push   %r10
  104039:	41 53                	push   %r11
  10403b:	fc                   	cld    
  10403c:	ff 14 25 98 a4 10 00 	callq  *0x10a498
  104043:	b0 20                	mov    $0x20,%al
  104045:	e6 20                	out    %al,$0x20
  104047:	41 5b                	pop    %r11
  104049:	41 5a                	pop    %r10
  10404b:	41 59                	pop    %r9
  10404d:	41 58                	pop    %r8
  10404f:	5f                   	pop    %rdi
  104050:	5e                   	pop    %rsi
  104051:	5a                   	pop    %rdx
  104052:	59                   	pop    %rcx
  104053:	58                   	pop    %rax
  104054:	48 81 c4 82 00 00 00 	add    $0x82,%rsp
  10405b:	48 cf                	iretq  

000000000010405d <interrupt_shim_148>:
  10405d:	48 81 ec 82 00 00 00 	sub    $0x82,%rsp
  104064:	50                   	push   %rax
  104065:	51                   	push   %rcx
  104066:	52                   	push   %rdx
  104067:	56                   	push   %rsi
  104068:	57                   	push   %rdi
  104069:	41 50                	push   %r8
  10406b:	41 51                	push   %r9
  10406d:	41 52                	push   %r10
  10406f:	41 53                	push   %r11
  104071:	fc                   	cld    
  104072:	ff 14 25 a0 a4 10 00 	callq  *0x10a4a0
  104079:	b0 20                	mov    $0x20,%al
  10407b:	e6 20                	out    %al,$0x20
  10407d:	41 5b                	pop    %r11
  10407f:	41 5a                	pop    %r10
  104081:	41 59                	pop    %r9
  104083:	41 58                	pop    %r8
  104085:	5f                   	pop    %rdi
  104086:	5e                   	pop    %rsi
  104087:	5a                   	pop    %rdx
  104088:	59                   	pop    %rcx
  104089:	58                   	pop    %rax
  10408a:	48 81 c4 82 00 00 00 	add    $0x82,%rsp
  104091:	48 cf                	iretq  

0000000000104093 <interrupt_shim_149>:
  104093:	48 81 ec 82 00 00 00 	sub    $0x82,%rsp
  10409a:	50                   	push   %rax
  10409b:	51                   	push   %rcx
  10409c:	52                   	push   %rdx
  10409d:	56                   	push   %rsi
  10409e:	57                   	push   %rdi
  10409f:	41 50                	push   %r8
  1040a1:	41 51                	push   %r9
  1040a3:	41 52                	push   %r10
  1040a5:	41 53                	push   %r11
  1040a7:	fc                   	cld    
  1040a8:	ff 14 25 a8 a4 10 00 	callq  *0x10a4a8
  1040af:	b0 20                	mov    $0x20,%al
  1040b1:	e6 20                	out    %al,$0x20
  1040b3:	41 5b                	pop    %r11
  1040b5:	41 5a                	pop    %r10
  1040b7:	41 59                	pop    %r9
  1040b9:	41 58                	pop    %r8
  1040bb:	5f                   	pop    %rdi
  1040bc:	5e                   	pop    %rsi
  1040bd:	5a                   	pop    %rdx
  1040be:	59                   	pop    %rcx
  1040bf:	58                   	pop    %rax
  1040c0:	48 81 c4 82 00 00 00 	add    $0x82,%rsp
  1040c7:	48 cf                	iretq  

00000000001040c9 <interrupt_shim_150>:
  1040c9:	48 81 ec 82 00 00 00 	sub    $0x82,%rsp
  1040d0:	50                   	push   %rax
  1040d1:	51                   	push   %rcx
  1040d2:	52                   	push   %rdx
  1040d3:	56                   	push   %rsi
  1040d4:	57                   	push   %rdi
  1040d5:	41 50                	push   %r8
  1040d7:	41 51                	push   %r9
  1040d9:	41 52                	push   %r10
  1040db:	41 53                	push   %r11
  1040dd:	fc                   	cld    
  1040de:	ff 14 25 b0 a4 10 00 	callq  *0x10a4b0
  1040e5:	b0 20                	mov    $0x20,%al
  1040e7:	e6 20                	out    %al,$0x20
  1040e9:	41 5b                	pop    %r11
  1040eb:	41 5a                	pop    %r10
  1040ed:	41 59                	pop    %r9
  1040ef:	41 58                	pop    %r8
  1040f1:	5f                   	pop    %rdi
  1040f2:	5e                   	pop    %rsi
  1040f3:	5a                   	pop    %rdx
  1040f4:	59                   	pop    %rcx
  1040f5:	58                   	pop    %rax
  1040f6:	48 81 c4 82 00 00 00 	add    $0x82,%rsp
  1040fd:	48 cf                	iretq  

00000000001040ff <interrupt_shim_151>:
  1040ff:	48 81 ec 82 00 00 00 	sub    $0x82,%rsp
  104106:	50                   	push   %rax
  104107:	51                   	push   %rcx
  104108:	52                   	push   %rdx
  104109:	56                   	push   %rsi
  10410a:	57                   	push   %rdi
  10410b:	41 50                	push   %r8
  10410d:	41 51                	push   %r9
  10410f:	41 52                	push   %r10
  104111:	41 53                	push   %r11
  104113:	fc                   	cld    
  104114:	ff 14 25 b8 a4 10 00 	callq  *0x10a4b8
  10411b:	b0 20                	mov    $0x20,%al
  10411d:	e6 20                	out    %al,$0x20
  10411f:	41 5b                	pop    %r11
  104121:	41 5a                	pop    %r10
  104123:	41 59                	pop    %r9
  104125:	41 58                	pop    %r8
  104127:	5f                   	pop    %rdi
  104128:	5e                   	pop    %rsi
  104129:	5a                   	pop    %rdx
  10412a:	59                   	pop    %rcx
  10412b:	58                   	pop    %rax
  10412c:	48 81 c4 82 00 00 00 	add    $0x82,%rsp
  104133:	48 cf                	iretq  

0000000000104135 <interrupt_shim_152>:
  104135:	48 81 ec 82 00 00 00 	sub    $0x82,%rsp
  10413c:	50                   	push   %rax
  10413d:	51                   	push   %rcx
  10413e:	52                   	push   %rdx
  10413f:	56                   	push   %rsi
  104140:	57                   	push   %rdi
  104141:	41 50                	push   %r8
  104143:	41 51                	push   %r9
  104145:	41 52                	push   %r10
  104147:	41 53                	push   %r11
  104149:	fc                   	cld    
  10414a:	ff 14 25 c0 a4 10 00 	callq  *0x10a4c0
  104151:	b0 20                	mov    $0x20,%al
  104153:	e6 20                	out    %al,$0x20
  104155:	41 5b                	pop    %r11
  104157:	41 5a                	pop    %r10
  104159:	41 59                	pop    %r9
  10415b:	41 58                	pop    %r8
  10415d:	5f                   	pop    %rdi
  10415e:	5e                   	pop    %rsi
  10415f:	5a                   	pop    %rdx
  104160:	59                   	pop    %rcx
  104161:	58                   	pop    %rax
  104162:	48 81 c4 82 00 00 00 	add    $0x82,%rsp
  104169:	48 cf                	iretq  

000000000010416b <interrupt_shim_153>:
  10416b:	48 81 ec 82 00 00 00 	sub    $0x82,%rsp
  104172:	50                   	push   %rax
  104173:	51                   	push   %rcx
  104174:	52                   	push   %rdx
  104175:	56                   	push   %rsi
  104176:	57                   	push   %rdi
  104177:	41 50                	push   %r8
  104179:	41 51                	push   %r9
  10417b:	41 52                	push   %r10
  10417d:	41 53                	push   %r11
  10417f:	fc                   	cld    
  104180:	ff 14 25 c8 a4 10 00 	callq  *0x10a4c8
  104187:	b0 20                	mov    $0x20,%al
  104189:	e6 20                	out    %al,$0x20
  10418b:	41 5b                	pop    %r11
  10418d:	41 5a                	pop    %r10
  10418f:	41 59                	pop    %r9
  104191:	41 58                	pop    %r8
  104193:	5f                   	pop    %rdi
  104194:	5e                   	pop    %rsi
  104195:	5a                   	pop    %rdx
  104196:	59                   	pop    %rcx
  104197:	58                   	pop    %rax
  104198:	48 81 c4 82 00 00 00 	add    $0x82,%rsp
  10419f:	48 cf                	iretq  

00000000001041a1 <interrupt_shim_154>:
  1041a1:	48 81 ec 82 00 00 00 	sub    $0x82,%rsp
  1041a8:	50                   	push   %rax
  1041a9:	51                   	push   %rcx
  1041aa:	52                   	push   %rdx
  1041ab:	56                   	push   %rsi
  1041ac:	57                   	push   %rdi
  1041ad:	41 50                	push   %r8
  1041af:	41 51                	push   %r9
  1041b1:	41 52                	push   %r10
  1041b3:	41 53                	push   %r11
  1041b5:	fc                   	cld    
  1041b6:	ff 14 25 d0 a4 10 00 	callq  *0x10a4d0
  1041bd:	b0 20                	mov    $0x20,%al
  1041bf:	e6 20                	out    %al,$0x20
  1041c1:	41 5b                	pop    %r11
  1041c3:	41 5a                	pop    %r10
  1041c5:	41 59                	pop    %r9
  1041c7:	41 58                	pop    %r8
  1041c9:	5f                   	pop    %rdi
  1041ca:	5e                   	pop    %rsi
  1041cb:	5a                   	pop    %rdx
  1041cc:	59                   	pop    %rcx
  1041cd:	58                   	pop    %rax
  1041ce:	48 81 c4 82 00 00 00 	add    $0x82,%rsp
  1041d5:	48 cf                	iretq  

00000000001041d7 <interrupt_shim_155>:
  1041d7:	48 81 ec 82 00 00 00 	sub    $0x82,%rsp
  1041de:	50                   	push   %rax
  1041df:	51                   	push   %rcx
  1041e0:	52                   	push   %rdx
  1041e1:	56                   	push   %rsi
  1041e2:	57                   	push   %rdi
  1041e3:	41 50                	push   %r8
  1041e5:	41 51                	push   %r9
  1041e7:	41 52                	push   %r10
  1041e9:	41 53                	push   %r11
  1041eb:	fc                   	cld    
  1041ec:	ff 14 25 d8 a4 10 00 	callq  *0x10a4d8
  1041f3:	b0 20                	mov    $0x20,%al
  1041f5:	e6 20                	out    %al,$0x20
  1041f7:	41 5b                	pop    %r11
  1041f9:	41 5a                	pop    %r10
  1041fb:	41 59                	pop    %r9
  1041fd:	41 58                	pop    %r8
  1041ff:	5f                   	pop    %rdi
  104200:	5e                   	pop    %rsi
  104201:	5a                   	pop    %rdx
  104202:	59                   	pop    %rcx
  104203:	58                   	pop    %rax
  104204:	48 81 c4 82 00 00 00 	add    $0x82,%rsp
  10420b:	48 cf                	iretq  

000000000010420d <interrupt_shim_156>:
  10420d:	48 81 ec 82 00 00 00 	sub    $0x82,%rsp
  104214:	50                   	push   %rax
  104215:	51                   	push   %rcx
  104216:	52                   	push   %rdx
  104217:	56                   	push   %rsi
  104218:	57                   	push   %rdi
  104219:	41 50                	push   %r8
  10421b:	41 51                	push   %r9
  10421d:	41 52                	push   %r10
  10421f:	41 53                	push   %r11
  104221:	fc                   	cld    
  104222:	ff 14 25 e0 a4 10 00 	callq  *0x10a4e0
  104229:	b0 20                	mov    $0x20,%al
  10422b:	e6 20                	out    %al,$0x20
  10422d:	41 5b                	pop    %r11
  10422f:	41 5a                	pop    %r10
  104231:	41 59                	pop    %r9
  104233:	41 58                	pop    %r8
  104235:	5f                   	pop    %rdi
  104236:	5e                   	pop    %rsi
  104237:	5a                   	pop    %rdx
  104238:	59                   	pop    %rcx
  104239:	58                   	pop    %rax
  10423a:	48 81 c4 82 00 00 00 	add    $0x82,%rsp
  104241:	48 cf                	iretq  

0000000000104243 <interrupt_shim_157>:
  104243:	48 81 ec 82 00 00 00 	sub    $0x82,%rsp
  10424a:	50                   	push   %rax
  10424b:	51                   	push   %rcx
  10424c:	52                   	push   %rdx
  10424d:	56                   	push   %rsi
  10424e:	57                   	push   %rdi
  10424f:	41 50                	push   %r8
  104251:	41 51                	push   %r9
  104253:	41 52                	push   %r10
  104255:	41 53                	push   %r11
  104257:	fc                   	cld    
  104258:	ff 14 25 e8 a4 10 00 	callq  *0x10a4e8
  10425f:	b0 20                	mov    $0x20,%al
  104261:	e6 20                	out    %al,$0x20
  104263:	41 5b                	pop    %r11
  104265:	41 5a                	pop    %r10
  104267:	41 59                	pop    %r9
  104269:	41 58                	pop    %r8
  10426b:	5f                   	pop    %rdi
  10426c:	5e                   	pop    %rsi
  10426d:	5a                   	pop    %rdx
  10426e:	59                   	pop    %rcx
  10426f:	58                   	pop    %rax
  104270:	48 81 c4 82 00 00 00 	add    $0x82,%rsp
  104277:	48 cf                	iretq  

0000000000104279 <interrupt_shim_158>:
  104279:	48 81 ec 82 00 00 00 	sub    $0x82,%rsp
  104280:	50                   	push   %rax
  104281:	51                   	push   %rcx
  104282:	52                   	push   %rdx
  104283:	56                   	push   %rsi
  104284:	57                   	push   %rdi
  104285:	41 50                	push   %r8
  104287:	41 51                	push   %r9
  104289:	41 52                	push   %r10
  10428b:	41 53                	push   %r11
  10428d:	fc                   	cld    
  10428e:	ff 14 25 f0 a4 10 00 	callq  *0x10a4f0
  104295:	b0 20                	mov    $0x20,%al
  104297:	e6 20                	out    %al,$0x20
  104299:	41 5b                	pop    %r11
  10429b:	41 5a                	pop    %r10
  10429d:	41 59                	pop    %r9
  10429f:	41 58                	pop    %r8
  1042a1:	5f                   	pop    %rdi
  1042a2:	5e                   	pop    %rsi
  1042a3:	5a                   	pop    %rdx
  1042a4:	59                   	pop    %rcx
  1042a5:	58                   	pop    %rax
  1042a6:	48 81 c4 82 00 00 00 	add    $0x82,%rsp
  1042ad:	48 cf                	iretq  

00000000001042af <interrupt_shim_159>:
  1042af:	48 81 ec 82 00 00 00 	sub    $0x82,%rsp
  1042b6:	50                   	push   %rax
  1042b7:	51                   	push   %rcx
  1042b8:	52                   	push   %rdx
  1042b9:	56                   	push   %rsi
  1042ba:	57                   	push   %rdi
  1042bb:	41 50                	push   %r8
  1042bd:	41 51                	push   %r9
  1042bf:	41 52                	push   %r10
  1042c1:	41 53                	push   %r11
  1042c3:	fc                   	cld    
  1042c4:	ff 14 25 f8 a4 10 00 	callq  *0x10a4f8
  1042cb:	b0 20                	mov    $0x20,%al
  1042cd:	e6 20                	out    %al,$0x20
  1042cf:	41 5b                	pop    %r11
  1042d1:	41 5a                	pop    %r10
  1042d3:	41 59                	pop    %r9
  1042d5:	41 58                	pop    %r8
  1042d7:	5f                   	pop    %rdi
  1042d8:	5e                   	pop    %rsi
  1042d9:	5a                   	pop    %rdx
  1042da:	59                   	pop    %rcx
  1042db:	58                   	pop    %rax
  1042dc:	48 81 c4 82 00 00 00 	add    $0x82,%rsp
  1042e3:	48 cf                	iretq  

00000000001042e5 <interrupt_shim_160>:
  1042e5:	48 81 ec 82 00 00 00 	sub    $0x82,%rsp
  1042ec:	50                   	push   %rax
  1042ed:	51                   	push   %rcx
  1042ee:	52                   	push   %rdx
  1042ef:	56                   	push   %rsi
  1042f0:	57                   	push   %rdi
  1042f1:	41 50                	push   %r8
  1042f3:	41 51                	push   %r9
  1042f5:	41 52                	push   %r10
  1042f7:	41 53                	push   %r11
  1042f9:	fc                   	cld    
  1042fa:	ff 14 25 00 a5 10 00 	callq  *0x10a500
  104301:	b0 20                	mov    $0x20,%al
  104303:	e6 20                	out    %al,$0x20
  104305:	41 5b                	pop    %r11
  104307:	41 5a                	pop    %r10
  104309:	41 59                	pop    %r9
  10430b:	41 58                	pop    %r8
  10430d:	5f                   	pop    %rdi
  10430e:	5e                   	pop    %rsi
  10430f:	5a                   	pop    %rdx
  104310:	59                   	pop    %rcx
  104311:	58                   	pop    %rax
  104312:	48 81 c4 82 00 00 00 	add    $0x82,%rsp
  104319:	48 cf                	iretq  

000000000010431b <interrupt_shim_161>:
  10431b:	48 81 ec 82 00 00 00 	sub    $0x82,%rsp
  104322:	50                   	push   %rax
  104323:	51                   	push   %rcx
  104324:	52                   	push   %rdx
  104325:	56                   	push   %rsi
  104326:	57                   	push   %rdi
  104327:	41 50                	push   %r8
  104329:	41 51                	push   %r9
  10432b:	41 52                	push   %r10
  10432d:	41 53                	push   %r11
  10432f:	fc                   	cld    
  104330:	ff 14 25 08 a5 10 00 	callq  *0x10a508
  104337:	b0 20                	mov    $0x20,%al
  104339:	e6 20                	out    %al,$0x20
  10433b:	41 5b                	pop    %r11
  10433d:	41 5a                	pop    %r10
  10433f:	41 59                	pop    %r9
  104341:	41 58                	pop    %r8
  104343:	5f                   	pop    %rdi
  104344:	5e                   	pop    %rsi
  104345:	5a                   	pop    %rdx
  104346:	59                   	pop    %rcx
  104347:	58                   	pop    %rax
  104348:	48 81 c4 82 00 00 00 	add    $0x82,%rsp
  10434f:	48 cf                	iretq  

0000000000104351 <interrupt_shim_162>:
  104351:	48 81 ec 82 00 00 00 	sub    $0x82,%rsp
  104358:	50                   	push   %rax
  104359:	51                   	push   %rcx
  10435a:	52                   	push   %rdx
  10435b:	56                   	push   %rsi
  10435c:	57                   	push   %rdi
  10435d:	41 50                	push   %r8
  10435f:	41 51                	push   %r9
  104361:	41 52                	push   %r10
  104363:	41 53                	push   %r11
  104365:	fc                   	cld    
  104366:	ff 14 25 10 a5 10 00 	callq  *0x10a510
  10436d:	b0 20                	mov    $0x20,%al
  10436f:	e6 20                	out    %al,$0x20
  104371:	41 5b                	pop    %r11
  104373:	41 5a                	pop    %r10
  104375:	41 59                	pop    %r9
  104377:	41 58                	pop    %r8
  104379:	5f                   	pop    %rdi
  10437a:	5e                   	pop    %rsi
  10437b:	5a                   	pop    %rdx
  10437c:	59                   	pop    %rcx
  10437d:	58                   	pop    %rax
  10437e:	48 81 c4 82 00 00 00 	add    $0x82,%rsp
  104385:	48 cf                	iretq  

0000000000104387 <interrupt_shim_163>:
  104387:	48 81 ec 82 00 00 00 	sub    $0x82,%rsp
  10438e:	50                   	push   %rax
  10438f:	51                   	push   %rcx
  104390:	52                   	push   %rdx
  104391:	56                   	push   %rsi
  104392:	57                   	push   %rdi
  104393:	41 50                	push   %r8
  104395:	41 51                	push   %r9
  104397:	41 52                	push   %r10
  104399:	41 53                	push   %r11
  10439b:	fc                   	cld    
  10439c:	ff 14 25 18 a5 10 00 	callq  *0x10a518
  1043a3:	b0 20                	mov    $0x20,%al
  1043a5:	e6 20                	out    %al,$0x20
  1043a7:	41 5b                	pop    %r11
  1043a9:	41 5a                	pop    %r10
  1043ab:	41 59                	pop    %r9
  1043ad:	41 58                	pop    %r8
  1043af:	5f                   	pop    %rdi
  1043b0:	5e                   	pop    %rsi
  1043b1:	5a                   	pop    %rdx
  1043b2:	59                   	pop    %rcx
  1043b3:	58                   	pop    %rax
  1043b4:	48 81 c4 82 00 00 00 	add    $0x82,%rsp
  1043bb:	48 cf                	iretq  

00000000001043bd <interrupt_shim_164>:
  1043bd:	48 81 ec 82 00 00 00 	sub    $0x82,%rsp
  1043c4:	50                   	push   %rax
  1043c5:	51                   	push   %rcx
  1043c6:	52                   	push   %rdx
  1043c7:	56                   	push   %rsi
  1043c8:	57                   	push   %rdi
  1043c9:	41 50                	push   %r8
  1043cb:	41 51                	push   %r9
  1043cd:	41 52                	push   %r10
  1043cf:	41 53                	push   %r11
  1043d1:	fc                   	cld    
  1043d2:	ff 14 25 20 a5 10 00 	callq  *0x10a520
  1043d9:	b0 20                	mov    $0x20,%al
  1043db:	e6 20                	out    %al,$0x20
  1043dd:	41 5b                	pop    %r11
  1043df:	41 5a                	pop    %r10
  1043e1:	41 59                	pop    %r9
  1043e3:	41 58                	pop    %r8
  1043e5:	5f                   	pop    %rdi
  1043e6:	5e                   	pop    %rsi
  1043e7:	5a                   	pop    %rdx
  1043e8:	59                   	pop    %rcx
  1043e9:	58                   	pop    %rax
  1043ea:	48 81 c4 82 00 00 00 	add    $0x82,%rsp
  1043f1:	48 cf                	iretq  

00000000001043f3 <interrupt_shim_165>:
  1043f3:	48 81 ec 82 00 00 00 	sub    $0x82,%rsp
  1043fa:	50                   	push   %rax
  1043fb:	51                   	push   %rcx
  1043fc:	52                   	push   %rdx
  1043fd:	56                   	push   %rsi
  1043fe:	57                   	push   %rdi
  1043ff:	41 50                	push   %r8
  104401:	41 51                	push   %r9
  104403:	41 52                	push   %r10
  104405:	41 53                	push   %r11
  104407:	fc                   	cld    
  104408:	ff 14 25 28 a5 10 00 	callq  *0x10a528
  10440f:	b0 20                	mov    $0x20,%al
  104411:	e6 20                	out    %al,$0x20
  104413:	41 5b                	pop    %r11
  104415:	41 5a                	pop    %r10
  104417:	41 59                	pop    %r9
  104419:	41 58                	pop    %r8
  10441b:	5f                   	pop    %rdi
  10441c:	5e                   	pop    %rsi
  10441d:	5a                   	pop    %rdx
  10441e:	59                   	pop    %rcx
  10441f:	58                   	pop    %rax
  104420:	48 81 c4 82 00 00 00 	add    $0x82,%rsp
  104427:	48 cf                	iretq  

0000000000104429 <interrupt_shim_166>:
  104429:	48 81 ec 82 00 00 00 	sub    $0x82,%rsp
  104430:	50                   	push   %rax
  104431:	51                   	push   %rcx
  104432:	52                   	push   %rdx
  104433:	56                   	push   %rsi
  104434:	57                   	push   %rdi
  104435:	41 50                	push   %r8
  104437:	41 51                	push   %r9
  104439:	41 52                	push   %r10
  10443b:	41 53                	push   %r11
  10443d:	fc                   	cld    
  10443e:	ff 14 25 30 a5 10 00 	callq  *0x10a530
  104445:	b0 20                	mov    $0x20,%al
  104447:	e6 20                	out    %al,$0x20
  104449:	41 5b                	pop    %r11
  10444b:	41 5a                	pop    %r10
  10444d:	41 59                	pop    %r9
  10444f:	41 58                	pop    %r8
  104451:	5f                   	pop    %rdi
  104452:	5e                   	pop    %rsi
  104453:	5a                   	pop    %rdx
  104454:	59                   	pop    %rcx
  104455:	58                   	pop    %rax
  104456:	48 81 c4 82 00 00 00 	add    $0x82,%rsp
  10445d:	48 cf                	iretq  

000000000010445f <interrupt_shim_167>:
  10445f:	48 81 ec 82 00 00 00 	sub    $0x82,%rsp
  104466:	50                   	push   %rax
  104467:	51                   	push   %rcx
  104468:	52                   	push   %rdx
  104469:	56                   	push   %rsi
  10446a:	57                   	push   %rdi
  10446b:	41 50                	push   %r8
  10446d:	41 51                	push   %r9
  10446f:	41 52                	push   %r10
  104471:	41 53                	push   %r11
  104473:	fc                   	cld    
  104474:	ff 14 25 38 a5 10 00 	callq  *0x10a538
  10447b:	b0 20                	mov    $0x20,%al
  10447d:	e6 20                	out    %al,$0x20
  10447f:	41 5b                	pop    %r11
  104481:	41 5a                	pop    %r10
  104483:	41 59                	pop    %r9
  104485:	41 58                	pop    %r8
  104487:	5f                   	pop    %rdi
  104488:	5e                   	pop    %rsi
  104489:	5a                   	pop    %rdx
  10448a:	59                   	pop    %rcx
  10448b:	58                   	pop    %rax
  10448c:	48 81 c4 82 00 00 00 	add    $0x82,%rsp
  104493:	48 cf                	iretq  

0000000000104495 <interrupt_shim_168>:
  104495:	48 81 ec 82 00 00 00 	sub    $0x82,%rsp
  10449c:	50                   	push   %rax
  10449d:	51                   	push   %rcx
  10449e:	52                   	push   %rdx
  10449f:	56                   	push   %rsi
  1044a0:	57                   	push   %rdi
  1044a1:	41 50                	push   %r8
  1044a3:	41 51                	push   %r9
  1044a5:	41 52                	push   %r10
  1044a7:	41 53                	push   %r11
  1044a9:	fc                   	cld    
  1044aa:	ff 14 25 40 a5 10 00 	callq  *0x10a540
  1044b1:	b0 20                	mov    $0x20,%al
  1044b3:	e6 20                	out    %al,$0x20
  1044b5:	41 5b                	pop    %r11
  1044b7:	41 5a                	pop    %r10
  1044b9:	41 59                	pop    %r9
  1044bb:	41 58                	pop    %r8
  1044bd:	5f                   	pop    %rdi
  1044be:	5e                   	pop    %rsi
  1044bf:	5a                   	pop    %rdx
  1044c0:	59                   	pop    %rcx
  1044c1:	58                   	pop    %rax
  1044c2:	48 81 c4 82 00 00 00 	add    $0x82,%rsp
  1044c9:	48 cf                	iretq  

00000000001044cb <interrupt_shim_169>:
  1044cb:	48 81 ec 82 00 00 00 	sub    $0x82,%rsp
  1044d2:	50                   	push   %rax
  1044d3:	51                   	push   %rcx
  1044d4:	52                   	push   %rdx
  1044d5:	56                   	push   %rsi
  1044d6:	57                   	push   %rdi
  1044d7:	41 50                	push   %r8
  1044d9:	41 51                	push   %r9
  1044db:	41 52                	push   %r10
  1044dd:	41 53                	push   %r11
  1044df:	fc                   	cld    
  1044e0:	ff 14 25 48 a5 10 00 	callq  *0x10a548
  1044e7:	b0 20                	mov    $0x20,%al
  1044e9:	e6 20                	out    %al,$0x20
  1044eb:	41 5b                	pop    %r11
  1044ed:	41 5a                	pop    %r10
  1044ef:	41 59                	pop    %r9
  1044f1:	41 58                	pop    %r8
  1044f3:	5f                   	pop    %rdi
  1044f4:	5e                   	pop    %rsi
  1044f5:	5a                   	pop    %rdx
  1044f6:	59                   	pop    %rcx
  1044f7:	58                   	pop    %rax
  1044f8:	48 81 c4 82 00 00 00 	add    $0x82,%rsp
  1044ff:	48 cf                	iretq  

0000000000104501 <interrupt_shim_170>:
  104501:	48 81 ec 82 00 00 00 	sub    $0x82,%rsp
  104508:	50                   	push   %rax
  104509:	51                   	push   %rcx
  10450a:	52                   	push   %rdx
  10450b:	56                   	push   %rsi
  10450c:	57                   	push   %rdi
  10450d:	41 50                	push   %r8
  10450f:	41 51                	push   %r9
  104511:	41 52                	push   %r10
  104513:	41 53                	push   %r11
  104515:	fc                   	cld    
  104516:	ff 14 25 50 a5 10 00 	callq  *0x10a550
  10451d:	b0 20                	mov    $0x20,%al
  10451f:	e6 20                	out    %al,$0x20
  104521:	41 5b                	pop    %r11
  104523:	41 5a                	pop    %r10
  104525:	41 59                	pop    %r9
  104527:	41 58                	pop    %r8
  104529:	5f                   	pop    %rdi
  10452a:	5e                   	pop    %rsi
  10452b:	5a                   	pop    %rdx
  10452c:	59                   	pop    %rcx
  10452d:	58                   	pop    %rax
  10452e:	48 81 c4 82 00 00 00 	add    $0x82,%rsp
  104535:	48 cf                	iretq  

0000000000104537 <interrupt_shim_171>:
  104537:	48 81 ec 82 00 00 00 	sub    $0x82,%rsp
  10453e:	50                   	push   %rax
  10453f:	51                   	push   %rcx
  104540:	52                   	push   %rdx
  104541:	56                   	push   %rsi
  104542:	57                   	push   %rdi
  104543:	41 50                	push   %r8
  104545:	41 51                	push   %r9
  104547:	41 52                	push   %r10
  104549:	41 53                	push   %r11
  10454b:	fc                   	cld    
  10454c:	ff 14 25 58 a5 10 00 	callq  *0x10a558
  104553:	b0 20                	mov    $0x20,%al
  104555:	e6 20                	out    %al,$0x20
  104557:	41 5b                	pop    %r11
  104559:	41 5a                	pop    %r10
  10455b:	41 59                	pop    %r9
  10455d:	41 58                	pop    %r8
  10455f:	5f                   	pop    %rdi
  104560:	5e                   	pop    %rsi
  104561:	5a                   	pop    %rdx
  104562:	59                   	pop    %rcx
  104563:	58                   	pop    %rax
  104564:	48 81 c4 82 00 00 00 	add    $0x82,%rsp
  10456b:	48 cf                	iretq  

000000000010456d <interrupt_shim_172>:
  10456d:	48 81 ec 82 00 00 00 	sub    $0x82,%rsp
  104574:	50                   	push   %rax
  104575:	51                   	push   %rcx
  104576:	52                   	push   %rdx
  104577:	56                   	push   %rsi
  104578:	57                   	push   %rdi
  104579:	41 50                	push   %r8
  10457b:	41 51                	push   %r9
  10457d:	41 52                	push   %r10
  10457f:	41 53                	push   %r11
  104581:	fc                   	cld    
  104582:	ff 14 25 60 a5 10 00 	callq  *0x10a560
  104589:	b0 20                	mov    $0x20,%al
  10458b:	e6 20                	out    %al,$0x20
  10458d:	41 5b                	pop    %r11
  10458f:	41 5a                	pop    %r10
  104591:	41 59                	pop    %r9
  104593:	41 58                	pop    %r8
  104595:	5f                   	pop    %rdi
  104596:	5e                   	pop    %rsi
  104597:	5a                   	pop    %rdx
  104598:	59                   	pop    %rcx
  104599:	58                   	pop    %rax
  10459a:	48 81 c4 82 00 00 00 	add    $0x82,%rsp
  1045a1:	48 cf                	iretq  

00000000001045a3 <interrupt_shim_173>:
  1045a3:	48 81 ec 82 00 00 00 	sub    $0x82,%rsp
  1045aa:	50                   	push   %rax
  1045ab:	51                   	push   %rcx
  1045ac:	52                   	push   %rdx
  1045ad:	56                   	push   %rsi
  1045ae:	57                   	push   %rdi
  1045af:	41 50                	push   %r8
  1045b1:	41 51                	push   %r9
  1045b3:	41 52                	push   %r10
  1045b5:	41 53                	push   %r11
  1045b7:	fc                   	cld    
  1045b8:	ff 14 25 68 a5 10 00 	callq  *0x10a568
  1045bf:	b0 20                	mov    $0x20,%al
  1045c1:	e6 20                	out    %al,$0x20
  1045c3:	41 5b                	pop    %r11
  1045c5:	41 5a                	pop    %r10
  1045c7:	41 59                	pop    %r9
  1045c9:	41 58                	pop    %r8
  1045cb:	5f                   	pop    %rdi
  1045cc:	5e                   	pop    %rsi
  1045cd:	5a                   	pop    %rdx
  1045ce:	59                   	pop    %rcx
  1045cf:	58                   	pop    %rax
  1045d0:	48 81 c4 82 00 00 00 	add    $0x82,%rsp
  1045d7:	48 cf                	iretq  

00000000001045d9 <interrupt_shim_174>:
  1045d9:	48 81 ec 82 00 00 00 	sub    $0x82,%rsp
  1045e0:	50                   	push   %rax
  1045e1:	51                   	push   %rcx
  1045e2:	52                   	push   %rdx
  1045e3:	56                   	push   %rsi
  1045e4:	57                   	push   %rdi
  1045e5:	41 50                	push   %r8
  1045e7:	41 51                	push   %r9
  1045e9:	41 52                	push   %r10
  1045eb:	41 53                	push   %r11
  1045ed:	fc                   	cld    
  1045ee:	ff 14 25 70 a5 10 00 	callq  *0x10a570
  1045f5:	b0 20                	mov    $0x20,%al
  1045f7:	e6 20                	out    %al,$0x20
  1045f9:	41 5b                	pop    %r11
  1045fb:	41 5a                	pop    %r10
  1045fd:	41 59                	pop    %r9
  1045ff:	41 58                	pop    %r8
  104601:	5f                   	pop    %rdi
  104602:	5e                   	pop    %rsi
  104603:	5a                   	pop    %rdx
  104604:	59                   	pop    %rcx
  104605:	58                   	pop    %rax
  104606:	48 81 c4 82 00 00 00 	add    $0x82,%rsp
  10460d:	48 cf                	iretq  

000000000010460f <interrupt_shim_175>:
  10460f:	48 81 ec 82 00 00 00 	sub    $0x82,%rsp
  104616:	50                   	push   %rax
  104617:	51                   	push   %rcx
  104618:	52                   	push   %rdx
  104619:	56                   	push   %rsi
  10461a:	57                   	push   %rdi
  10461b:	41 50                	push   %r8
  10461d:	41 51                	push   %r9
  10461f:	41 52                	push   %r10
  104621:	41 53                	push   %r11
  104623:	fc                   	cld    
  104624:	ff 14 25 78 a5 10 00 	callq  *0x10a578
  10462b:	b0 20                	mov    $0x20,%al
  10462d:	e6 20                	out    %al,$0x20
  10462f:	41 5b                	pop    %r11
  104631:	41 5a                	pop    %r10
  104633:	41 59                	pop    %r9
  104635:	41 58                	pop    %r8
  104637:	5f                   	pop    %rdi
  104638:	5e                   	pop    %rsi
  104639:	5a                   	pop    %rdx
  10463a:	59                   	pop    %rcx
  10463b:	58                   	pop    %rax
  10463c:	48 81 c4 82 00 00 00 	add    $0x82,%rsp
  104643:	48 cf                	iretq  

0000000000104645 <interrupt_shim_176>:
  104645:	48 81 ec 82 00 00 00 	sub    $0x82,%rsp
  10464c:	50                   	push   %rax
  10464d:	51                   	push   %rcx
  10464e:	52                   	push   %rdx
  10464f:	56                   	push   %rsi
  104650:	57                   	push   %rdi
  104651:	41 50                	push   %r8
  104653:	41 51                	push   %r9
  104655:	41 52                	push   %r10
  104657:	41 53                	push   %r11
  104659:	fc                   	cld    
  10465a:	ff 14 25 80 a5 10 00 	callq  *0x10a580
  104661:	b0 20                	mov    $0x20,%al
  104663:	e6 20                	out    %al,$0x20
  104665:	41 5b                	pop    %r11
  104667:	41 5a                	pop    %r10
  104669:	41 59                	pop    %r9
  10466b:	41 58                	pop    %r8
  10466d:	5f                   	pop    %rdi
  10466e:	5e                   	pop    %rsi
  10466f:	5a                   	pop    %rdx
  104670:	59                   	pop    %rcx
  104671:	58                   	pop    %rax
  104672:	48 81 c4 82 00 00 00 	add    $0x82,%rsp
  104679:	48 cf                	iretq  

000000000010467b <interrupt_shim_177>:
  10467b:	48 81 ec 82 00 00 00 	sub    $0x82,%rsp
  104682:	50                   	push   %rax
  104683:	51                   	push   %rcx
  104684:	52                   	push   %rdx
  104685:	56                   	push   %rsi
  104686:	57                   	push   %rdi
  104687:	41 50                	push   %r8
  104689:	41 51                	push   %r9
  10468b:	41 52                	push   %r10
  10468d:	41 53                	push   %r11
  10468f:	fc                   	cld    
  104690:	ff 14 25 88 a5 10 00 	callq  *0x10a588
  104697:	b0 20                	mov    $0x20,%al
  104699:	e6 20                	out    %al,$0x20
  10469b:	41 5b                	pop    %r11
  10469d:	41 5a                	pop    %r10
  10469f:	41 59                	pop    %r9
  1046a1:	41 58                	pop    %r8
  1046a3:	5f                   	pop    %rdi
  1046a4:	5e                   	pop    %rsi
  1046a5:	5a                   	pop    %rdx
  1046a6:	59                   	pop    %rcx
  1046a7:	58                   	pop    %rax
  1046a8:	48 81 c4 82 00 00 00 	add    $0x82,%rsp
  1046af:	48 cf                	iretq  

00000000001046b1 <interrupt_shim_178>:
  1046b1:	48 81 ec 82 00 00 00 	sub    $0x82,%rsp
  1046b8:	50                   	push   %rax
  1046b9:	51                   	push   %rcx
  1046ba:	52                   	push   %rdx
  1046bb:	56                   	push   %rsi
  1046bc:	57                   	push   %rdi
  1046bd:	41 50                	push   %r8
  1046bf:	41 51                	push   %r9
  1046c1:	41 52                	push   %r10
  1046c3:	41 53                	push   %r11
  1046c5:	fc                   	cld    
  1046c6:	ff 14 25 90 a5 10 00 	callq  *0x10a590
  1046cd:	b0 20                	mov    $0x20,%al
  1046cf:	e6 20                	out    %al,$0x20
  1046d1:	41 5b                	pop    %r11
  1046d3:	41 5a                	pop    %r10
  1046d5:	41 59                	pop    %r9
  1046d7:	41 58                	pop    %r8
  1046d9:	5f                   	pop    %rdi
  1046da:	5e                   	pop    %rsi
  1046db:	5a                   	pop    %rdx
  1046dc:	59                   	pop    %rcx
  1046dd:	58                   	pop    %rax
  1046de:	48 81 c4 82 00 00 00 	add    $0x82,%rsp
  1046e5:	48 cf                	iretq  

00000000001046e7 <interrupt_shim_179>:
  1046e7:	48 81 ec 82 00 00 00 	sub    $0x82,%rsp
  1046ee:	50                   	push   %rax
  1046ef:	51                   	push   %rcx
  1046f0:	52                   	push   %rdx
  1046f1:	56                   	push   %rsi
  1046f2:	57                   	push   %rdi
  1046f3:	41 50                	push   %r8
  1046f5:	41 51                	push   %r9
  1046f7:	41 52                	push   %r10
  1046f9:	41 53                	push   %r11
  1046fb:	fc                   	cld    
  1046fc:	ff 14 25 98 a5 10 00 	callq  *0x10a598
  104703:	b0 20                	mov    $0x20,%al
  104705:	e6 20                	out    %al,$0x20
  104707:	41 5b                	pop    %r11
  104709:	41 5a                	pop    %r10
  10470b:	41 59                	pop    %r9
  10470d:	41 58                	pop    %r8
  10470f:	5f                   	pop    %rdi
  104710:	5e                   	pop    %rsi
  104711:	5a                   	pop    %rdx
  104712:	59                   	pop    %rcx
  104713:	58                   	pop    %rax
  104714:	48 81 c4 82 00 00 00 	add    $0x82,%rsp
  10471b:	48 cf                	iretq  

000000000010471d <interrupt_shim_180>:
  10471d:	48 81 ec 82 00 00 00 	sub    $0x82,%rsp
  104724:	50                   	push   %rax
  104725:	51                   	push   %rcx
  104726:	52                   	push   %rdx
  104727:	56                   	push   %rsi
  104728:	57                   	push   %rdi
  104729:	41 50                	push   %r8
  10472b:	41 51                	push   %r9
  10472d:	41 52                	push   %r10
  10472f:	41 53                	push   %r11
  104731:	fc                   	cld    
  104732:	ff 14 25 a0 a5 10 00 	callq  *0x10a5a0
  104739:	b0 20                	mov    $0x20,%al
  10473b:	e6 20                	out    %al,$0x20
  10473d:	41 5b                	pop    %r11
  10473f:	41 5a                	pop    %r10
  104741:	41 59                	pop    %r9
  104743:	41 58                	pop    %r8
  104745:	5f                   	pop    %rdi
  104746:	5e                   	pop    %rsi
  104747:	5a                   	pop    %rdx
  104748:	59                   	pop    %rcx
  104749:	58                   	pop    %rax
  10474a:	48 81 c4 82 00 00 00 	add    $0x82,%rsp
  104751:	48 cf                	iretq  

0000000000104753 <interrupt_shim_181>:
  104753:	48 81 ec 82 00 00 00 	sub    $0x82,%rsp
  10475a:	50                   	push   %rax
  10475b:	51                   	push   %rcx
  10475c:	52                   	push   %rdx
  10475d:	56                   	push   %rsi
  10475e:	57                   	push   %rdi
  10475f:	41 50                	push   %r8
  104761:	41 51                	push   %r9
  104763:	41 52                	push   %r10
  104765:	41 53                	push   %r11
  104767:	fc                   	cld    
  104768:	ff 14 25 a8 a5 10 00 	callq  *0x10a5a8
  10476f:	b0 20                	mov    $0x20,%al
  104771:	e6 20                	out    %al,$0x20
  104773:	41 5b                	pop    %r11
  104775:	41 5a                	pop    %r10
  104777:	41 59                	pop    %r9
  104779:	41 58                	pop    %r8
  10477b:	5f                   	pop    %rdi
  10477c:	5e                   	pop    %rsi
  10477d:	5a                   	pop    %rdx
  10477e:	59                   	pop    %rcx
  10477f:	58                   	pop    %rax
  104780:	48 81 c4 82 00 00 00 	add    $0x82,%rsp
  104787:	48 cf                	iretq  

0000000000104789 <interrupt_shim_182>:
  104789:	48 81 ec 82 00 00 00 	sub    $0x82,%rsp
  104790:	50                   	push   %rax
  104791:	51                   	push   %rcx
  104792:	52                   	push   %rdx
  104793:	56                   	push   %rsi
  104794:	57                   	push   %rdi
  104795:	41 50                	push   %r8
  104797:	41 51                	push   %r9
  104799:	41 52                	push   %r10
  10479b:	41 53                	push   %r11
  10479d:	fc                   	cld    
  10479e:	ff 14 25 b0 a5 10 00 	callq  *0x10a5b0
  1047a5:	b0 20                	mov    $0x20,%al
  1047a7:	e6 20                	out    %al,$0x20
  1047a9:	41 5b                	pop    %r11
  1047ab:	41 5a                	pop    %r10
  1047ad:	41 59                	pop    %r9
  1047af:	41 58                	pop    %r8
  1047b1:	5f                   	pop    %rdi
  1047b2:	5e                   	pop    %rsi
  1047b3:	5a                   	pop    %rdx
  1047b4:	59                   	pop    %rcx
  1047b5:	58                   	pop    %rax
  1047b6:	48 81 c4 82 00 00 00 	add    $0x82,%rsp
  1047bd:	48 cf                	iretq  

00000000001047bf <interrupt_shim_183>:
  1047bf:	48 81 ec 82 00 00 00 	sub    $0x82,%rsp
  1047c6:	50                   	push   %rax
  1047c7:	51                   	push   %rcx
  1047c8:	52                   	push   %rdx
  1047c9:	56                   	push   %rsi
  1047ca:	57                   	push   %rdi
  1047cb:	41 50                	push   %r8
  1047cd:	41 51                	push   %r9
  1047cf:	41 52                	push   %r10
  1047d1:	41 53                	push   %r11
  1047d3:	fc                   	cld    
  1047d4:	ff 14 25 b8 a5 10 00 	callq  *0x10a5b8
  1047db:	b0 20                	mov    $0x20,%al
  1047dd:	e6 20                	out    %al,$0x20
  1047df:	41 5b                	pop    %r11
  1047e1:	41 5a                	pop    %r10
  1047e3:	41 59                	pop    %r9
  1047e5:	41 58                	pop    %r8
  1047e7:	5f                   	pop    %rdi
  1047e8:	5e                   	pop    %rsi
  1047e9:	5a                   	pop    %rdx
  1047ea:	59                   	pop    %rcx
  1047eb:	58                   	pop    %rax
  1047ec:	48 81 c4 82 00 00 00 	add    $0x82,%rsp
  1047f3:	48 cf                	iretq  

00000000001047f5 <interrupt_shim_184>:
  1047f5:	48 81 ec 82 00 00 00 	sub    $0x82,%rsp
  1047fc:	50                   	push   %rax
  1047fd:	51                   	push   %rcx
  1047fe:	52                   	push   %rdx
  1047ff:	56                   	push   %rsi
  104800:	57                   	push   %rdi
  104801:	41 50                	push   %r8
  104803:	41 51                	push   %r9
  104805:	41 52                	push   %r10
  104807:	41 53                	push   %r11
  104809:	fc                   	cld    
  10480a:	ff 14 25 c0 a5 10 00 	callq  *0x10a5c0
  104811:	b0 20                	mov    $0x20,%al
  104813:	e6 20                	out    %al,$0x20
  104815:	41 5b                	pop    %r11
  104817:	41 5a                	pop    %r10
  104819:	41 59                	pop    %r9
  10481b:	41 58                	pop    %r8
  10481d:	5f                   	pop    %rdi
  10481e:	5e                   	pop    %rsi
  10481f:	5a                   	pop    %rdx
  104820:	59                   	pop    %rcx
  104821:	58                   	pop    %rax
  104822:	48 81 c4 82 00 00 00 	add    $0x82,%rsp
  104829:	48 cf                	iretq  

000000000010482b <interrupt_shim_185>:
  10482b:	48 81 ec 82 00 00 00 	sub    $0x82,%rsp
  104832:	50                   	push   %rax
  104833:	51                   	push   %rcx
  104834:	52                   	push   %rdx
  104835:	56                   	push   %rsi
  104836:	57                   	push   %rdi
  104837:	41 50                	push   %r8
  104839:	41 51                	push   %r9
  10483b:	41 52                	push   %r10
  10483d:	41 53                	push   %r11
  10483f:	fc                   	cld    
  104840:	ff 14 25 c8 a5 10 00 	callq  *0x10a5c8
  104847:	b0 20                	mov    $0x20,%al
  104849:	e6 20                	out    %al,$0x20
  10484b:	41 5b                	pop    %r11
  10484d:	41 5a                	pop    %r10
  10484f:	41 59                	pop    %r9
  104851:	41 58                	pop    %r8
  104853:	5f                   	pop    %rdi
  104854:	5e                   	pop    %rsi
  104855:	5a                   	pop    %rdx
  104856:	59                   	pop    %rcx
  104857:	58                   	pop    %rax
  104858:	48 81 c4 82 00 00 00 	add    $0x82,%rsp
  10485f:	48 cf                	iretq  

0000000000104861 <interrupt_shim_186>:
  104861:	48 81 ec 82 00 00 00 	sub    $0x82,%rsp
  104868:	50                   	push   %rax
  104869:	51                   	push   %rcx
  10486a:	52                   	push   %rdx
  10486b:	56                   	push   %rsi
  10486c:	57                   	push   %rdi
  10486d:	41 50                	push   %r8
  10486f:	41 51                	push   %r9
  104871:	41 52                	push   %r10
  104873:	41 53                	push   %r11
  104875:	fc                   	cld    
  104876:	ff 14 25 d0 a5 10 00 	callq  *0x10a5d0
  10487d:	b0 20                	mov    $0x20,%al
  10487f:	e6 20                	out    %al,$0x20
  104881:	41 5b                	pop    %r11
  104883:	41 5a                	pop    %r10
  104885:	41 59                	pop    %r9
  104887:	41 58                	pop    %r8
  104889:	5f                   	pop    %rdi
  10488a:	5e                   	pop    %rsi
  10488b:	5a                   	pop    %rdx
  10488c:	59                   	pop    %rcx
  10488d:	58                   	pop    %rax
  10488e:	48 81 c4 82 00 00 00 	add    $0x82,%rsp
  104895:	48 cf                	iretq  

0000000000104897 <interrupt_shim_187>:
  104897:	48 81 ec 82 00 00 00 	sub    $0x82,%rsp
  10489e:	50                   	push   %rax
  10489f:	51                   	push   %rcx
  1048a0:	52                   	push   %rdx
  1048a1:	56                   	push   %rsi
  1048a2:	57                   	push   %rdi
  1048a3:	41 50                	push   %r8
  1048a5:	41 51                	push   %r9
  1048a7:	41 52                	push   %r10
  1048a9:	41 53                	push   %r11
  1048ab:	fc                   	cld    
  1048ac:	ff 14 25 d8 a5 10 00 	callq  *0x10a5d8
  1048b3:	b0 20                	mov    $0x20,%al
  1048b5:	e6 20                	out    %al,$0x20
  1048b7:	41 5b                	pop    %r11
  1048b9:	41 5a                	pop    %r10
  1048bb:	41 59                	pop    %r9
  1048bd:	41 58                	pop    %r8
  1048bf:	5f                   	pop    %rdi
  1048c0:	5e                   	pop    %rsi
  1048c1:	5a                   	pop    %rdx
  1048c2:	59                   	pop    %rcx
  1048c3:	58                   	pop    %rax
  1048c4:	48 81 c4 82 00 00 00 	add    $0x82,%rsp
  1048cb:	48 cf                	iretq  

00000000001048cd <interrupt_shim_188>:
  1048cd:	48 81 ec 82 00 00 00 	sub    $0x82,%rsp
  1048d4:	50                   	push   %rax
  1048d5:	51                   	push   %rcx
  1048d6:	52                   	push   %rdx
  1048d7:	56                   	push   %rsi
  1048d8:	57                   	push   %rdi
  1048d9:	41 50                	push   %r8
  1048db:	41 51                	push   %r9
  1048dd:	41 52                	push   %r10
  1048df:	41 53                	push   %r11
  1048e1:	fc                   	cld    
  1048e2:	ff 14 25 e0 a5 10 00 	callq  *0x10a5e0
  1048e9:	b0 20                	mov    $0x20,%al
  1048eb:	e6 20                	out    %al,$0x20
  1048ed:	41 5b                	pop    %r11
  1048ef:	41 5a                	pop    %r10
  1048f1:	41 59                	pop    %r9
  1048f3:	41 58                	pop    %r8
  1048f5:	5f                   	pop    %rdi
  1048f6:	5e                   	pop    %rsi
  1048f7:	5a                   	pop    %rdx
  1048f8:	59                   	pop    %rcx
  1048f9:	58                   	pop    %rax
  1048fa:	48 81 c4 82 00 00 00 	add    $0x82,%rsp
  104901:	48 cf                	iretq  

0000000000104903 <interrupt_shim_189>:
  104903:	48 81 ec 82 00 00 00 	sub    $0x82,%rsp
  10490a:	50                   	push   %rax
  10490b:	51                   	push   %rcx
  10490c:	52                   	push   %rdx
  10490d:	56                   	push   %rsi
  10490e:	57                   	push   %rdi
  10490f:	41 50                	push   %r8
  104911:	41 51                	push   %r9
  104913:	41 52                	push   %r10
  104915:	41 53                	push   %r11
  104917:	fc                   	cld    
  104918:	ff 14 25 e8 a5 10 00 	callq  *0x10a5e8
  10491f:	b0 20                	mov    $0x20,%al
  104921:	e6 20                	out    %al,$0x20
  104923:	41 5b                	pop    %r11
  104925:	41 5a                	pop    %r10
  104927:	41 59                	pop    %r9
  104929:	41 58                	pop    %r8
  10492b:	5f                   	pop    %rdi
  10492c:	5e                   	pop    %rsi
  10492d:	5a                   	pop    %rdx
  10492e:	59                   	pop    %rcx
  10492f:	58                   	pop    %rax
  104930:	48 81 c4 82 00 00 00 	add    $0x82,%rsp
  104937:	48 cf                	iretq  

0000000000104939 <interrupt_shim_190>:
  104939:	48 81 ec 82 00 00 00 	sub    $0x82,%rsp
  104940:	50                   	push   %rax
  104941:	51                   	push   %rcx
  104942:	52                   	push   %rdx
  104943:	56                   	push   %rsi
  104944:	57                   	push   %rdi
  104945:	41 50                	push   %r8
  104947:	41 51                	push   %r9
  104949:	41 52                	push   %r10
  10494b:	41 53                	push   %r11
  10494d:	fc                   	cld    
  10494e:	ff 14 25 f0 a5 10 00 	callq  *0x10a5f0
  104955:	b0 20                	mov    $0x20,%al
  104957:	e6 20                	out    %al,$0x20
  104959:	41 5b                	pop    %r11
  10495b:	41 5a                	pop    %r10
  10495d:	41 59                	pop    %r9
  10495f:	41 58                	pop    %r8
  104961:	5f                   	pop    %rdi
  104962:	5e                   	pop    %rsi
  104963:	5a                   	pop    %rdx
  104964:	59                   	pop    %rcx
  104965:	58                   	pop    %rax
  104966:	48 81 c4 82 00 00 00 	add    $0x82,%rsp
  10496d:	48 cf                	iretq  

000000000010496f <interrupt_shim_191>:
  10496f:	48 81 ec 82 00 00 00 	sub    $0x82,%rsp
  104976:	50                   	push   %rax
  104977:	51                   	push   %rcx
  104978:	52                   	push   %rdx
  104979:	56                   	push   %rsi
  10497a:	57                   	push   %rdi
  10497b:	41 50                	push   %r8
  10497d:	41 51                	push   %r9
  10497f:	41 52                	push   %r10
  104981:	41 53                	push   %r11
  104983:	fc                   	cld    
  104984:	ff 14 25 f8 a5 10 00 	callq  *0x10a5f8
  10498b:	b0 20                	mov    $0x20,%al
  10498d:	e6 20                	out    %al,$0x20
  10498f:	41 5b                	pop    %r11
  104991:	41 5a                	pop    %r10
  104993:	41 59                	pop    %r9
  104995:	41 58                	pop    %r8
  104997:	5f                   	pop    %rdi
  104998:	5e                   	pop    %rsi
  104999:	5a                   	pop    %rdx
  10499a:	59                   	pop    %rcx
  10499b:	58                   	pop    %rax
  10499c:	48 81 c4 82 00 00 00 	add    $0x82,%rsp
  1049a3:	48 cf                	iretq  

00000000001049a5 <interrupt_shim_192>:
  1049a5:	48 81 ec 82 00 00 00 	sub    $0x82,%rsp
  1049ac:	50                   	push   %rax
  1049ad:	51                   	push   %rcx
  1049ae:	52                   	push   %rdx
  1049af:	56                   	push   %rsi
  1049b0:	57                   	push   %rdi
  1049b1:	41 50                	push   %r8
  1049b3:	41 51                	push   %r9
  1049b5:	41 52                	push   %r10
  1049b7:	41 53                	push   %r11
  1049b9:	fc                   	cld    
  1049ba:	ff 14 25 00 a6 10 00 	callq  *0x10a600
  1049c1:	b0 20                	mov    $0x20,%al
  1049c3:	e6 20                	out    %al,$0x20
  1049c5:	41 5b                	pop    %r11
  1049c7:	41 5a                	pop    %r10
  1049c9:	41 59                	pop    %r9
  1049cb:	41 58                	pop    %r8
  1049cd:	5f                   	pop    %rdi
  1049ce:	5e                   	pop    %rsi
  1049cf:	5a                   	pop    %rdx
  1049d0:	59                   	pop    %rcx
  1049d1:	58                   	pop    %rax
  1049d2:	48 81 c4 82 00 00 00 	add    $0x82,%rsp
  1049d9:	48 cf                	iretq  

00000000001049db <interrupt_shim_193>:
  1049db:	48 81 ec 82 00 00 00 	sub    $0x82,%rsp
  1049e2:	50                   	push   %rax
  1049e3:	51                   	push   %rcx
  1049e4:	52                   	push   %rdx
  1049e5:	56                   	push   %rsi
  1049e6:	57                   	push   %rdi
  1049e7:	41 50                	push   %r8
  1049e9:	41 51                	push   %r9
  1049eb:	41 52                	push   %r10
  1049ed:	41 53                	push   %r11
  1049ef:	fc                   	cld    
  1049f0:	ff 14 25 08 a6 10 00 	callq  *0x10a608
  1049f7:	b0 20                	mov    $0x20,%al
  1049f9:	e6 20                	out    %al,$0x20
  1049fb:	41 5b                	pop    %r11
  1049fd:	41 5a                	pop    %r10
  1049ff:	41 59                	pop    %r9
  104a01:	41 58                	pop    %r8
  104a03:	5f                   	pop    %rdi
  104a04:	5e                   	pop    %rsi
  104a05:	5a                   	pop    %rdx
  104a06:	59                   	pop    %rcx
  104a07:	58                   	pop    %rax
  104a08:	48 81 c4 82 00 00 00 	add    $0x82,%rsp
  104a0f:	48 cf                	iretq  

0000000000104a11 <interrupt_shim_194>:
  104a11:	48 81 ec 82 00 00 00 	sub    $0x82,%rsp
  104a18:	50                   	push   %rax
  104a19:	51                   	push   %rcx
  104a1a:	52                   	push   %rdx
  104a1b:	56                   	push   %rsi
  104a1c:	57                   	push   %rdi
  104a1d:	41 50                	push   %r8
  104a1f:	41 51                	push   %r9
  104a21:	41 52                	push   %r10
  104a23:	41 53                	push   %r11
  104a25:	fc                   	cld    
  104a26:	ff 14 25 10 a6 10 00 	callq  *0x10a610
  104a2d:	b0 20                	mov    $0x20,%al
  104a2f:	e6 20                	out    %al,$0x20
  104a31:	41 5b                	pop    %r11
  104a33:	41 5a                	pop    %r10
  104a35:	41 59                	pop    %r9
  104a37:	41 58                	pop    %r8
  104a39:	5f                   	pop    %rdi
  104a3a:	5e                   	pop    %rsi
  104a3b:	5a                   	pop    %rdx
  104a3c:	59                   	pop    %rcx
  104a3d:	58                   	pop    %rax
  104a3e:	48 81 c4 82 00 00 00 	add    $0x82,%rsp
  104a45:	48 cf                	iretq  

0000000000104a47 <interrupt_shim_195>:
  104a47:	48 81 ec 82 00 00 00 	sub    $0x82,%rsp
  104a4e:	50                   	push   %rax
  104a4f:	51                   	push   %rcx
  104a50:	52                   	push   %rdx
  104a51:	56                   	push   %rsi
  104a52:	57                   	push   %rdi
  104a53:	41 50                	push   %r8
  104a55:	41 51                	push   %r9
  104a57:	41 52                	push   %r10
  104a59:	41 53                	push   %r11
  104a5b:	fc                   	cld    
  104a5c:	ff 14 25 18 a6 10 00 	callq  *0x10a618
  104a63:	b0 20                	mov    $0x20,%al
  104a65:	e6 20                	out    %al,$0x20
  104a67:	41 5b                	pop    %r11
  104a69:	41 5a                	pop    %r10
  104a6b:	41 59                	pop    %r9
  104a6d:	41 58                	pop    %r8
  104a6f:	5f                   	pop    %rdi
  104a70:	5e                   	pop    %rsi
  104a71:	5a                   	pop    %rdx
  104a72:	59                   	pop    %rcx
  104a73:	58                   	pop    %rax
  104a74:	48 81 c4 82 00 00 00 	add    $0x82,%rsp
  104a7b:	48 cf                	iretq  

0000000000104a7d <interrupt_shim_196>:
  104a7d:	48 81 ec 82 00 00 00 	sub    $0x82,%rsp
  104a84:	50                   	push   %rax
  104a85:	51                   	push   %rcx
  104a86:	52                   	push   %rdx
  104a87:	56                   	push   %rsi
  104a88:	57                   	push   %rdi
  104a89:	41 50                	push   %r8
  104a8b:	41 51                	push   %r9
  104a8d:	41 52                	push   %r10
  104a8f:	41 53                	push   %r11
  104a91:	fc                   	cld    
  104a92:	ff 14 25 20 a6 10 00 	callq  *0x10a620
  104a99:	b0 20                	mov    $0x20,%al
  104a9b:	e6 20                	out    %al,$0x20
  104a9d:	41 5b                	pop    %r11
  104a9f:	41 5a                	pop    %r10
  104aa1:	41 59                	pop    %r9
  104aa3:	41 58                	pop    %r8
  104aa5:	5f                   	pop    %rdi
  104aa6:	5e                   	pop    %rsi
  104aa7:	5a                   	pop    %rdx
  104aa8:	59                   	pop    %rcx
  104aa9:	58                   	pop    %rax
  104aaa:	48 81 c4 82 00 00 00 	add    $0x82,%rsp
  104ab1:	48 cf                	iretq  

0000000000104ab3 <interrupt_shim_197>:
  104ab3:	48 81 ec 82 00 00 00 	sub    $0x82,%rsp
  104aba:	50                   	push   %rax
  104abb:	51                   	push   %rcx
  104abc:	52                   	push   %rdx
  104abd:	56                   	push   %rsi
  104abe:	57                   	push   %rdi
  104abf:	41 50                	push   %r8
  104ac1:	41 51                	push   %r9
  104ac3:	41 52                	push   %r10
  104ac5:	41 53                	push   %r11
  104ac7:	fc                   	cld    
  104ac8:	ff 14 25 28 a6 10 00 	callq  *0x10a628
  104acf:	b0 20                	mov    $0x20,%al
  104ad1:	e6 20                	out    %al,$0x20
  104ad3:	41 5b                	pop    %r11
  104ad5:	41 5a                	pop    %r10
  104ad7:	41 59                	pop    %r9
  104ad9:	41 58                	pop    %r8
  104adb:	5f                   	pop    %rdi
  104adc:	5e                   	pop    %rsi
  104add:	5a                   	pop    %rdx
  104ade:	59                   	pop    %rcx
  104adf:	58                   	pop    %rax
  104ae0:	48 81 c4 82 00 00 00 	add    $0x82,%rsp
  104ae7:	48 cf                	iretq  

0000000000104ae9 <interrupt_shim_198>:
  104ae9:	48 81 ec 82 00 00 00 	sub    $0x82,%rsp
  104af0:	50                   	push   %rax
  104af1:	51                   	push   %rcx
  104af2:	52                   	push   %rdx
  104af3:	56                   	push   %rsi
  104af4:	57                   	push   %rdi
  104af5:	41 50                	push   %r8
  104af7:	41 51                	push   %r9
  104af9:	41 52                	push   %r10
  104afb:	41 53                	push   %r11
  104afd:	fc                   	cld    
  104afe:	ff 14 25 30 a6 10 00 	callq  *0x10a630
  104b05:	b0 20                	mov    $0x20,%al
  104b07:	e6 20                	out    %al,$0x20
  104b09:	41 5b                	pop    %r11
  104b0b:	41 5a                	pop    %r10
  104b0d:	41 59                	pop    %r9
  104b0f:	41 58                	pop    %r8
  104b11:	5f                   	pop    %rdi
  104b12:	5e                   	pop    %rsi
  104b13:	5a                   	pop    %rdx
  104b14:	59                   	pop    %rcx
  104b15:	58                   	pop    %rax
  104b16:	48 81 c4 82 00 00 00 	add    $0x82,%rsp
  104b1d:	48 cf                	iretq  

0000000000104b1f <interrupt_shim_199>:
  104b1f:	48 81 ec 82 00 00 00 	sub    $0x82,%rsp
  104b26:	50                   	push   %rax
  104b27:	51                   	push   %rcx
  104b28:	52                   	push   %rdx
  104b29:	56                   	push   %rsi
  104b2a:	57                   	push   %rdi
  104b2b:	41 50                	push   %r8
  104b2d:	41 51                	push   %r9
  104b2f:	41 52                	push   %r10
  104b31:	41 53                	push   %r11
  104b33:	fc                   	cld    
  104b34:	ff 14 25 38 a6 10 00 	callq  *0x10a638
  104b3b:	b0 20                	mov    $0x20,%al
  104b3d:	e6 20                	out    %al,$0x20
  104b3f:	41 5b                	pop    %r11
  104b41:	41 5a                	pop    %r10
  104b43:	41 59                	pop    %r9
  104b45:	41 58                	pop    %r8
  104b47:	5f                   	pop    %rdi
  104b48:	5e                   	pop    %rsi
  104b49:	5a                   	pop    %rdx
  104b4a:	59                   	pop    %rcx
  104b4b:	58                   	pop    %rax
  104b4c:	48 81 c4 82 00 00 00 	add    $0x82,%rsp
  104b53:	48 cf                	iretq  

0000000000104b55 <interrupt_shim_200>:
  104b55:	48 81 ec 82 00 00 00 	sub    $0x82,%rsp
  104b5c:	50                   	push   %rax
  104b5d:	51                   	push   %rcx
  104b5e:	52                   	push   %rdx
  104b5f:	56                   	push   %rsi
  104b60:	57                   	push   %rdi
  104b61:	41 50                	push   %r8
  104b63:	41 51                	push   %r9
  104b65:	41 52                	push   %r10
  104b67:	41 53                	push   %r11
  104b69:	fc                   	cld    
  104b6a:	ff 14 25 40 a6 10 00 	callq  *0x10a640
  104b71:	b0 20                	mov    $0x20,%al
  104b73:	e6 20                	out    %al,$0x20
  104b75:	41 5b                	pop    %r11
  104b77:	41 5a                	pop    %r10
  104b79:	41 59                	pop    %r9
  104b7b:	41 58                	pop    %r8
  104b7d:	5f                   	pop    %rdi
  104b7e:	5e                   	pop    %rsi
  104b7f:	5a                   	pop    %rdx
  104b80:	59                   	pop    %rcx
  104b81:	58                   	pop    %rax
  104b82:	48 81 c4 82 00 00 00 	add    $0x82,%rsp
  104b89:	48 cf                	iretq  

0000000000104b8b <interrupt_shim_201>:
  104b8b:	48 81 ec 82 00 00 00 	sub    $0x82,%rsp
  104b92:	50                   	push   %rax
  104b93:	51                   	push   %rcx
  104b94:	52                   	push   %rdx
  104b95:	56                   	push   %rsi
  104b96:	57                   	push   %rdi
  104b97:	41 50                	push   %r8
  104b99:	41 51                	push   %r9
  104b9b:	41 52                	push   %r10
  104b9d:	41 53                	push   %r11
  104b9f:	fc                   	cld    
  104ba0:	ff 14 25 48 a6 10 00 	callq  *0x10a648
  104ba7:	b0 20                	mov    $0x20,%al
  104ba9:	e6 20                	out    %al,$0x20
  104bab:	41 5b                	pop    %r11
  104bad:	41 5a                	pop    %r10
  104baf:	41 59                	pop    %r9
  104bb1:	41 58                	pop    %r8
  104bb3:	5f                   	pop    %rdi
  104bb4:	5e                   	pop    %rsi
  104bb5:	5a                   	pop    %rdx
  104bb6:	59                   	pop    %rcx
  104bb7:	58                   	pop    %rax
  104bb8:	48 81 c4 82 00 00 00 	add    $0x82,%rsp
  104bbf:	48 cf                	iretq  

0000000000104bc1 <interrupt_shim_202>:
  104bc1:	48 81 ec 82 00 00 00 	sub    $0x82,%rsp
  104bc8:	50                   	push   %rax
  104bc9:	51                   	push   %rcx
  104bca:	52                   	push   %rdx
  104bcb:	56                   	push   %rsi
  104bcc:	57                   	push   %rdi
  104bcd:	41 50                	push   %r8
  104bcf:	41 51                	push   %r9
  104bd1:	41 52                	push   %r10
  104bd3:	41 53                	push   %r11
  104bd5:	fc                   	cld    
  104bd6:	ff 14 25 50 a6 10 00 	callq  *0x10a650
  104bdd:	b0 20                	mov    $0x20,%al
  104bdf:	e6 20                	out    %al,$0x20
  104be1:	41 5b                	pop    %r11
  104be3:	41 5a                	pop    %r10
  104be5:	41 59                	pop    %r9
  104be7:	41 58                	pop    %r8
  104be9:	5f                   	pop    %rdi
  104bea:	5e                   	pop    %rsi
  104beb:	5a                   	pop    %rdx
  104bec:	59                   	pop    %rcx
  104bed:	58                   	pop    %rax
  104bee:	48 81 c4 82 00 00 00 	add    $0x82,%rsp
  104bf5:	48 cf                	iretq  

0000000000104bf7 <interrupt_shim_203>:
  104bf7:	48 81 ec 82 00 00 00 	sub    $0x82,%rsp
  104bfe:	50                   	push   %rax
  104bff:	51                   	push   %rcx
  104c00:	52                   	push   %rdx
  104c01:	56                   	push   %rsi
  104c02:	57                   	push   %rdi
  104c03:	41 50                	push   %r8
  104c05:	41 51                	push   %r9
  104c07:	41 52                	push   %r10
  104c09:	41 53                	push   %r11
  104c0b:	fc                   	cld    
  104c0c:	ff 14 25 58 a6 10 00 	callq  *0x10a658
  104c13:	b0 20                	mov    $0x20,%al
  104c15:	e6 20                	out    %al,$0x20
  104c17:	41 5b                	pop    %r11
  104c19:	41 5a                	pop    %r10
  104c1b:	41 59                	pop    %r9
  104c1d:	41 58                	pop    %r8
  104c1f:	5f                   	pop    %rdi
  104c20:	5e                   	pop    %rsi
  104c21:	5a                   	pop    %rdx
  104c22:	59                   	pop    %rcx
  104c23:	58                   	pop    %rax
  104c24:	48 81 c4 82 00 00 00 	add    $0x82,%rsp
  104c2b:	48 cf                	iretq  

0000000000104c2d <interrupt_shim_204>:
  104c2d:	48 81 ec 82 00 00 00 	sub    $0x82,%rsp
  104c34:	50                   	push   %rax
  104c35:	51                   	push   %rcx
  104c36:	52                   	push   %rdx
  104c37:	56                   	push   %rsi
  104c38:	57                   	push   %rdi
  104c39:	41 50                	push   %r8
  104c3b:	41 51                	push   %r9
  104c3d:	41 52                	push   %r10
  104c3f:	41 53                	push   %r11
  104c41:	fc                   	cld    
  104c42:	ff 14 25 60 a6 10 00 	callq  *0x10a660
  104c49:	b0 20                	mov    $0x20,%al
  104c4b:	e6 20                	out    %al,$0x20
  104c4d:	41 5b                	pop    %r11
  104c4f:	41 5a                	pop    %r10
  104c51:	41 59                	pop    %r9
  104c53:	41 58                	pop    %r8
  104c55:	5f                   	pop    %rdi
  104c56:	5e                   	pop    %rsi
  104c57:	5a                   	pop    %rdx
  104c58:	59                   	pop    %rcx
  104c59:	58                   	pop    %rax
  104c5a:	48 81 c4 82 00 00 00 	add    $0x82,%rsp
  104c61:	48 cf                	iretq  

0000000000104c63 <interrupt_shim_205>:
  104c63:	48 81 ec 82 00 00 00 	sub    $0x82,%rsp
  104c6a:	50                   	push   %rax
  104c6b:	51                   	push   %rcx
  104c6c:	52                   	push   %rdx
  104c6d:	56                   	push   %rsi
  104c6e:	57                   	push   %rdi
  104c6f:	41 50                	push   %r8
  104c71:	41 51                	push   %r9
  104c73:	41 52                	push   %r10
  104c75:	41 53                	push   %r11
  104c77:	fc                   	cld    
  104c78:	ff 14 25 68 a6 10 00 	callq  *0x10a668
  104c7f:	b0 20                	mov    $0x20,%al
  104c81:	e6 20                	out    %al,$0x20
  104c83:	41 5b                	pop    %r11
  104c85:	41 5a                	pop    %r10
  104c87:	41 59                	pop    %r9
  104c89:	41 58                	pop    %r8
  104c8b:	5f                   	pop    %rdi
  104c8c:	5e                   	pop    %rsi
  104c8d:	5a                   	pop    %rdx
  104c8e:	59                   	pop    %rcx
  104c8f:	58                   	pop    %rax
  104c90:	48 81 c4 82 00 00 00 	add    $0x82,%rsp
  104c97:	48 cf                	iretq  

0000000000104c99 <interrupt_shim_206>:
  104c99:	48 81 ec 82 00 00 00 	sub    $0x82,%rsp
  104ca0:	50                   	push   %rax
  104ca1:	51                   	push   %rcx
  104ca2:	52                   	push   %rdx
  104ca3:	56                   	push   %rsi
  104ca4:	57                   	push   %rdi
  104ca5:	41 50                	push   %r8
  104ca7:	41 51                	push   %r9
  104ca9:	41 52                	push   %r10
  104cab:	41 53                	push   %r11
  104cad:	fc                   	cld    
  104cae:	ff 14 25 70 a6 10 00 	callq  *0x10a670
  104cb5:	b0 20                	mov    $0x20,%al
  104cb7:	e6 20                	out    %al,$0x20
  104cb9:	41 5b                	pop    %r11
  104cbb:	41 5a                	pop    %r10
  104cbd:	41 59                	pop    %r9
  104cbf:	41 58                	pop    %r8
  104cc1:	5f                   	pop    %rdi
  104cc2:	5e                   	pop    %rsi
  104cc3:	5a                   	pop    %rdx
  104cc4:	59                   	pop    %rcx
  104cc5:	58                   	pop    %rax
  104cc6:	48 81 c4 82 00 00 00 	add    $0x82,%rsp
  104ccd:	48 cf                	iretq  

0000000000104ccf <interrupt_shim_207>:
  104ccf:	48 81 ec 82 00 00 00 	sub    $0x82,%rsp
  104cd6:	50                   	push   %rax
  104cd7:	51                   	push   %rcx
  104cd8:	52                   	push   %rdx
  104cd9:	56                   	push   %rsi
  104cda:	57                   	push   %rdi
  104cdb:	41 50                	push   %r8
  104cdd:	41 51                	push   %r9
  104cdf:	41 52                	push   %r10
  104ce1:	41 53                	push   %r11
  104ce3:	fc                   	cld    
  104ce4:	ff 14 25 78 a6 10 00 	callq  *0x10a678
  104ceb:	b0 20                	mov    $0x20,%al
  104ced:	e6 20                	out    %al,$0x20
  104cef:	41 5b                	pop    %r11
  104cf1:	41 5a                	pop    %r10
  104cf3:	41 59                	pop    %r9
  104cf5:	41 58                	pop    %r8
  104cf7:	5f                   	pop    %rdi
  104cf8:	5e                   	pop    %rsi
  104cf9:	5a                   	pop    %rdx
  104cfa:	59                   	pop    %rcx
  104cfb:	58                   	pop    %rax
  104cfc:	48 81 c4 82 00 00 00 	add    $0x82,%rsp
  104d03:	48 cf                	iretq  

0000000000104d05 <interrupt_shim_208>:
  104d05:	48 81 ec 82 00 00 00 	sub    $0x82,%rsp
  104d0c:	50                   	push   %rax
  104d0d:	51                   	push   %rcx
  104d0e:	52                   	push   %rdx
  104d0f:	56                   	push   %rsi
  104d10:	57                   	push   %rdi
  104d11:	41 50                	push   %r8
  104d13:	41 51                	push   %r9
  104d15:	41 52                	push   %r10
  104d17:	41 53                	push   %r11
  104d19:	fc                   	cld    
  104d1a:	ff 14 25 80 a6 10 00 	callq  *0x10a680
  104d21:	b0 20                	mov    $0x20,%al
  104d23:	e6 20                	out    %al,$0x20
  104d25:	41 5b                	pop    %r11
  104d27:	41 5a                	pop    %r10
  104d29:	41 59                	pop    %r9
  104d2b:	41 58                	pop    %r8
  104d2d:	5f                   	pop    %rdi
  104d2e:	5e                   	pop    %rsi
  104d2f:	5a                   	pop    %rdx
  104d30:	59                   	pop    %rcx
  104d31:	58                   	pop    %rax
  104d32:	48 81 c4 82 00 00 00 	add    $0x82,%rsp
  104d39:	48 cf                	iretq  

0000000000104d3b <interrupt_shim_209>:
  104d3b:	48 81 ec 82 00 00 00 	sub    $0x82,%rsp
  104d42:	50                   	push   %rax
  104d43:	51                   	push   %rcx
  104d44:	52                   	push   %rdx
  104d45:	56                   	push   %rsi
  104d46:	57                   	push   %rdi
  104d47:	41 50                	push   %r8
  104d49:	41 51                	push   %r9
  104d4b:	41 52                	push   %r10
  104d4d:	41 53                	push   %r11
  104d4f:	fc                   	cld    
  104d50:	ff 14 25 88 a6 10 00 	callq  *0x10a688
  104d57:	b0 20                	mov    $0x20,%al
  104d59:	e6 20                	out    %al,$0x20
  104d5b:	41 5b                	pop    %r11
  104d5d:	41 5a                	pop    %r10
  104d5f:	41 59                	pop    %r9
  104d61:	41 58                	pop    %r8
  104d63:	5f                   	pop    %rdi
  104d64:	5e                   	pop    %rsi
  104d65:	5a                   	pop    %rdx
  104d66:	59                   	pop    %rcx
  104d67:	58                   	pop    %rax
  104d68:	48 81 c4 82 00 00 00 	add    $0x82,%rsp
  104d6f:	48 cf                	iretq  

0000000000104d71 <interrupt_shim_210>:
  104d71:	48 81 ec 82 00 00 00 	sub    $0x82,%rsp
  104d78:	50                   	push   %rax
  104d79:	51                   	push   %rcx
  104d7a:	52                   	push   %rdx
  104d7b:	56                   	push   %rsi
  104d7c:	57                   	push   %rdi
  104d7d:	41 50                	push   %r8
  104d7f:	41 51                	push   %r9
  104d81:	41 52                	push   %r10
  104d83:	41 53                	push   %r11
  104d85:	fc                   	cld    
  104d86:	ff 14 25 90 a6 10 00 	callq  *0x10a690
  104d8d:	b0 20                	mov    $0x20,%al
  104d8f:	e6 20                	out    %al,$0x20
  104d91:	41 5b                	pop    %r11
  104d93:	41 5a                	pop    %r10
  104d95:	41 59                	pop    %r9
  104d97:	41 58                	pop    %r8
  104d99:	5f                   	pop    %rdi
  104d9a:	5e                   	pop    %rsi
  104d9b:	5a                   	pop    %rdx
  104d9c:	59                   	pop    %rcx
  104d9d:	58                   	pop    %rax
  104d9e:	48 81 c4 82 00 00 00 	add    $0x82,%rsp
  104da5:	48 cf                	iretq  

0000000000104da7 <interrupt_shim_211>:
  104da7:	48 81 ec 82 00 00 00 	sub    $0x82,%rsp
  104dae:	50                   	push   %rax
  104daf:	51                   	push   %rcx
  104db0:	52                   	push   %rdx
  104db1:	56                   	push   %rsi
  104db2:	57                   	push   %rdi
  104db3:	41 50                	push   %r8
  104db5:	41 51                	push   %r9
  104db7:	41 52                	push   %r10
  104db9:	41 53                	push   %r11
  104dbb:	fc                   	cld    
  104dbc:	ff 14 25 98 a6 10 00 	callq  *0x10a698
  104dc3:	b0 20                	mov    $0x20,%al
  104dc5:	e6 20                	out    %al,$0x20
  104dc7:	41 5b                	pop    %r11
  104dc9:	41 5a                	pop    %r10
  104dcb:	41 59                	pop    %r9
  104dcd:	41 58                	pop    %r8
  104dcf:	5f                   	pop    %rdi
  104dd0:	5e                   	pop    %rsi
  104dd1:	5a                   	pop    %rdx
  104dd2:	59                   	pop    %rcx
  104dd3:	58                   	pop    %rax
  104dd4:	48 81 c4 82 00 00 00 	add    $0x82,%rsp
  104ddb:	48 cf                	iretq  

0000000000104ddd <interrupt_shim_212>:
  104ddd:	48 81 ec 82 00 00 00 	sub    $0x82,%rsp
  104de4:	50                   	push   %rax
  104de5:	51                   	push   %rcx
  104de6:	52                   	push   %rdx
  104de7:	56                   	push   %rsi
  104de8:	57                   	push   %rdi
  104de9:	41 50                	push   %r8
  104deb:	41 51                	push   %r9
  104ded:	41 52                	push   %r10
  104def:	41 53                	push   %r11
  104df1:	fc                   	cld    
  104df2:	ff 14 25 a0 a6 10 00 	callq  *0x10a6a0
  104df9:	b0 20                	mov    $0x20,%al
  104dfb:	e6 20                	out    %al,$0x20
  104dfd:	41 5b                	pop    %r11
  104dff:	41 5a                	pop    %r10
  104e01:	41 59                	pop    %r9
  104e03:	41 58                	pop    %r8
  104e05:	5f                   	pop    %rdi
  104e06:	5e                   	pop    %rsi
  104e07:	5a                   	pop    %rdx
  104e08:	59                   	pop    %rcx
  104e09:	58                   	pop    %rax
  104e0a:	48 81 c4 82 00 00 00 	add    $0x82,%rsp
  104e11:	48 cf                	iretq  

0000000000104e13 <interrupt_shim_213>:
  104e13:	48 81 ec 82 00 00 00 	sub    $0x82,%rsp
  104e1a:	50                   	push   %rax
  104e1b:	51                   	push   %rcx
  104e1c:	52                   	push   %rdx
  104e1d:	56                   	push   %rsi
  104e1e:	57                   	push   %rdi
  104e1f:	41 50                	push   %r8
  104e21:	41 51                	push   %r9
  104e23:	41 52                	push   %r10
  104e25:	41 53                	push   %r11
